
notworking_firmware.bin:     file format binary


Disassembly of section .data:

00000000 <.data>:
       0:	5000      	str	r0, [r0, r0]
       2:	2000      	movs	r0, #0
       4:	1015      	asrs	r5, r2, #32
       6:	0800      	lsrs	r0, r0, #32
       8:	1011      	asrs	r1, r2, #32
       a:	0800      	lsrs	r0, r0, #32
       c:	100f      	asrs	r7, r1, #32
       e:	0800      	lsrs	r0, r0, #32
      10:	100f      	asrs	r7, r1, #32
      12:	0800      	lsrs	r0, r0, #32
      14:	100f      	asrs	r7, r1, #32
      16:	0800      	lsrs	r0, r0, #32
      18:	100f      	asrs	r7, r1, #32
      1a:	0800      	lsrs	r0, r0, #32
	...
      2c:	1011      	asrs	r1, r2, #32
      2e:	0800      	lsrs	r0, r0, #32
      30:	1011      	asrs	r1, r2, #32
      32:	0800      	lsrs	r0, r0, #32
      34:	0000      	movs	r0, r0
      36:	0000      	movs	r0, r0
      38:	1011      	asrs	r1, r2, #32
      3a:	0800      	lsrs	r0, r0, #32
      3c:	0191      	lsls	r1, r2, #6
      3e:	0800      	lsrs	r0, r0, #32
      40:	100f      	asrs	r7, r1, #32
      42:	0800      	lsrs	r0, r0, #32
      44:	100f      	asrs	r7, r1, #32
      46:	0800      	lsrs	r0, r0, #32
      48:	100f      	asrs	r7, r1, #32
      4a:	0800      	lsrs	r0, r0, #32
      4c:	100f      	asrs	r7, r1, #32
      4e:	0800      	lsrs	r0, r0, #32
      50:	100f      	asrs	r7, r1, #32
      52:	0800      	lsrs	r0, r0, #32
      54:	100f      	asrs	r7, r1, #32
      56:	0800      	lsrs	r0, r0, #32
      58:	100f      	asrs	r7, r1, #32
      5a:	0800      	lsrs	r0, r0, #32
      5c:	100f      	asrs	r7, r1, #32
      5e:	0800      	lsrs	r0, r0, #32
      60:	100f      	asrs	r7, r1, #32
      62:	0800      	lsrs	r0, r0, #32
      64:	100f      	asrs	r7, r1, #32
      66:	0800      	lsrs	r0, r0, #32
      68:	100f      	asrs	r7, r1, #32
      6a:	0800      	lsrs	r0, r0, #32
      6c:	100f      	asrs	r7, r1, #32
      6e:	0800      	lsrs	r0, r0, #32
      70:	100f      	asrs	r7, r1, #32
      72:	0800      	lsrs	r0, r0, #32
      74:	100f      	asrs	r7, r1, #32
      76:	0800      	lsrs	r0, r0, #32
      78:	100f      	asrs	r7, r1, #32
      7a:	0800      	lsrs	r0, r0, #32
      7c:	100f      	asrs	r7, r1, #32
      7e:	0800      	lsrs	r0, r0, #32
      80:	100f      	asrs	r7, r1, #32
      82:	0800      	lsrs	r0, r0, #32
      84:	100f      	asrs	r7, r1, #32
      86:	0800      	lsrs	r0, r0, #32
      88:	100f      	asrs	r7, r1, #32
      8a:	0800      	lsrs	r0, r0, #32
      8c:	100f      	asrs	r7, r1, #32
      8e:	0800      	lsrs	r0, r0, #32
      90:	03bd      	lsls	r5, r7, #14
      92:	0800      	lsrs	r0, r0, #32
      94:	100f      	asrs	r7, r1, #32
      96:	0800      	lsrs	r0, r0, #32
      98:	100f      	asrs	r7, r1, #32
      9a:	0800      	lsrs	r0, r0, #32
      9c:	100f      	asrs	r7, r1, #32
      9e:	0800      	lsrs	r0, r0, #32
      a0:	100f      	asrs	r7, r1, #32
      a2:	0800      	lsrs	r0, r0, #32
      a4:	100f      	asrs	r7, r1, #32
      a6:	0800      	lsrs	r0, r0, #32
      a8:	100f      	asrs	r7, r1, #32
      aa:	0800      	lsrs	r0, r0, #32
      ac:	100f      	asrs	r7, r1, #32
      ae:	0800      	lsrs	r0, r0, #32
      b0:	100f      	asrs	r7, r1, #32
      b2:	0800      	lsrs	r0, r0, #32
      b4:	100f      	asrs	r7, r1, #32
      b6:	0800      	lsrs	r0, r0, #32
      b8:	100f      	asrs	r7, r1, #32
      ba:	0800      	lsrs	r0, r0, #32
      bc:	100f      	asrs	r7, r1, #32
      be:	0800      	lsrs	r0, r0, #32
      c0:	100f      	asrs	r7, r1, #32
      c2:	0800      	lsrs	r0, r0, #32
      c4:	100f      	asrs	r7, r1, #32
      c6:	0800      	lsrs	r0, r0, #32
      c8:	100f      	asrs	r7, r1, #32
      ca:	0800      	lsrs	r0, r0, #32
      cc:	100f      	asrs	r7, r1, #32
      ce:	0800      	lsrs	r0, r0, #32
      d0:	100f      	asrs	r7, r1, #32
      d2:	0800      	lsrs	r0, r0, #32
      d4:	100f      	asrs	r7, r1, #32
      d6:	0800      	lsrs	r0, r0, #32
      d8:	100f      	asrs	r7, r1, #32
      da:	0800      	lsrs	r0, r0, #32
      dc:	100f      	asrs	r7, r1, #32
      de:	0800      	lsrs	r0, r0, #32
      e0:	100f      	asrs	r7, r1, #32
      e2:	0800      	lsrs	r0, r0, #32
      e4:	100f      	asrs	r7, r1, #32
      e6:	0800      	lsrs	r0, r0, #32
      e8:	100f      	asrs	r7, r1, #32
      ea:	0800      	lsrs	r0, r0, #32
      ec:	100f      	asrs	r7, r1, #32
      ee:	0800      	lsrs	r0, r0, #32
      f0:	100f      	asrs	r7, r1, #32
      f2:	0800      	lsrs	r0, r0, #32
      f4:	100f      	asrs	r7, r1, #32
      f6:	0800      	lsrs	r0, r0, #32
      f8:	100f      	asrs	r7, r1, #32
      fa:	0800      	lsrs	r0, r0, #32
      fc:	100f      	asrs	r7, r1, #32
      fe:	0800      	lsrs	r0, r0, #32
     100:	100f      	asrs	r7, r1, #32
     102:	0800      	lsrs	r0, r0, #32
     104:	100f      	asrs	r7, r1, #32
     106:	0800      	lsrs	r0, r0, #32
     108:	100f      	asrs	r7, r1, #32
     10a:	0800      	lsrs	r0, r0, #32
     10c:	100f      	asrs	r7, r1, #32
     10e:	0800      	lsrs	r0, r0, #32
     110:	100f      	asrs	r7, r1, #32
     112:	0800      	lsrs	r0, r0, #32
     114:	100f      	asrs	r7, r1, #32
     116:	0800      	lsrs	r0, r0, #32
     118:	100f      	asrs	r7, r1, #32
     11a:	0800      	lsrs	r0, r0, #32
     11c:	100f      	asrs	r7, r1, #32
     11e:	0800      	lsrs	r0, r0, #32
     120:	100f      	asrs	r7, r1, #32
     122:	0800      	lsrs	r0, r0, #32
     124:	100f      	asrs	r7, r1, #32
     126:	0800      	lsrs	r0, r0, #32
     128:	100f      	asrs	r7, r1, #32
     12a:	0800      	lsrs	r0, r0, #32
     12c:	100f      	asrs	r7, r1, #32
     12e:	0800      	lsrs	r0, r0, #32
     130:	100f      	asrs	r7, r1, #32
     132:	0800      	lsrs	r0, r0, #32
     134:	100f      	asrs	r7, r1, #32
     136:	0800      	lsrs	r0, r0, #32
     138:	100f      	asrs	r7, r1, #32
     13a:	0800      	lsrs	r0, r0, #32
     13c:	100f      	asrs	r7, r1, #32
     13e:	0800      	lsrs	r0, r0, #32
     140:	100f      	asrs	r7, r1, #32
     142:	0800      	lsrs	r0, r0, #32
     144:	100f      	asrs	r7, r1, #32
     146:	0800      	lsrs	r0, r0, #32
     148:	100f      	asrs	r7, r1, #32
     14a:	0800      	lsrs	r0, r0, #32
     14c:	100f      	asrs	r7, r1, #32
     14e:	0800      	lsrs	r0, r0, #32
     150:	4b03      	ldr	r3, [pc, #12]	; (0x160)
     152:	681a      	ldr	r2, [r3, #0]
     154:	4410      	add	r0, r2
     156:	681a      	ldr	r2, [r3, #0]
     158:	1a82      	subs	r2, r0, r2
     15a:	2a00      	cmp	r2, #0
     15c:	dcfb      	bgt.n	0x156
     15e:	4770      	bx	lr
     160:	000c      	movs	r4, r1
     162:	2000      	movs	r0, #0
     164:	b508      	push	{r3, lr}
     166:	2000      	movs	r0, #0
     168:	f000 ffa6 	bl	0x10b8
     16c:	4b07      	ldr	r3, [pc, #28]	; (0x18c)
     16e:	6818      	ldr	r0, [r3, #0]
     170:	f44f 53fa 	mov.w	r3, #8000	; 0x1f40
     174:	fbb0 f0f3 	udiv	r0, r0, r3
     178:	3801      	subs	r0, #1
     17a:	f000 ff95 	bl	0x10a8
     17e:	f000 ffa7 	bl	0x10d0
     182:	e8bd 4008 	ldmia.w	sp!, {r3, lr}
     186:	f000 bfab 	b.w	0x10e0
     18a:	bf00      	nop
     18c:	0000      	movs	r0, r0
     18e:	2000      	movs	r0, #0
     190:	4a02      	ldr	r2, [pc, #8]	; (0x19c)
     192:	6813      	ldr	r3, [r2, #0]
     194:	3301      	adds	r3, #1
     196:	6013      	str	r3, [r2, #0]
     198:	4770      	bx	lr
     19a:	bf00      	nop
     19c:	000c      	movs	r4, r1
     19e:	2000      	movs	r0, #0
     1a0:	b508      	push	{r3, lr}
     1a2:	f000 f921 	bl	0x3e8
     1a6:	f000 f879 	bl	0x29c
     1aa:	f000 f8bf 	bl	0x32c
     1ae:	e7fc      	b.n	0x1aa
     1b0:	4a10      	ldr	r2, [pc, #64]	; (0x1f4)
     1b2:	4b11      	ldr	r3, [pc, #68]	; (0x1f8)
     1b4:	3204      	adds	r2, #4
     1b6:	681b      	ldr	r3, [r3, #0]
     1b8:	f852 1c04 	ldr.w	r1, [r2, #-4]
     1bc:	b5f0      	push	{r4, r5, r6, r7, lr}
     1be:	6812      	ldr	r2, [r2, #0]
     1c0:	4c0e      	ldr	r4, [pc, #56]	; (0x1fc)
     1c2:	4d0f      	ldr	r5, [pc, #60]	; (0x200)
     1c4:	4413      	add	r3, r2
     1c6:	4620      	mov	r0, r4
     1c8:	2200      	movs	r2, #0
     1ca:	462e      	mov	r6, r5
     1cc:	0f1f      	lsrs	r7, r3, #28
     1ce:	5def      	ldrb	r7, [r5, r7]
     1d0:	011b      	lsls	r3, r3, #4
     1d2:	5517      	strb	r7, [r2, r4]
     1d4:	3201      	adds	r2, #1
     1d6:	2a08      	cmp	r2, #8
     1d8:	d1f8      	bne.n	0x1cc
     1da:	2300      	movs	r3, #0
     1dc:	0f0c      	lsrs	r4, r1, #28
     1de:	18c2      	adds	r2, r0, r3
     1e0:	5d34      	ldrb	r4, [r6, r4]
     1e2:	3301      	adds	r3, #1
     1e4:	2b04      	cmp	r3, #4
     1e6:	7214      	strb	r4, [r2, #8]
     1e8:	ea4f 1101 	mov.w	r1, r1, lsl #4
     1ec:	d1f6      	bne.n	0x1dc
     1ee:	2300      	movs	r3, #0
     1f0:	7303      	strb	r3, [r0, #12]
     1f2:	bdf0      	pop	{r4, r5, r6, r7, pc}
     1f4:	f7ec 1fff 			; <UNDEFINED> instruction: 0xf7ec1fff
     1f8:	f7e8 1fff 			; <UNDEFINED> instruction: 0xf7e81fff
     1fc:	0010      	movs	r0, r2
     1fe:	2000      	movs	r0, #0
     200:	1650      	asrs	r0, r2, #25
     202:	0800      	lsrs	r0, r0, #32
     204:	b513      	push	{r0, r1, r4, lr}
     206:	4b0c      	ldr	r3, [pc, #48]	; (0x238)
     208:	2202      	movs	r2, #2
     20a:	9300      	str	r3, [sp, #0]
     20c:	2101      	movs	r1, #1
     20e:	2340      	movs	r3, #64	; 0x40
     210:	4604      	mov	r4, r0
     212:	f000 fa8f 	bl	0x734
     216:	2300      	movs	r3, #0
     218:	2202      	movs	r2, #2
     21a:	9300      	str	r3, [sp, #0]
     21c:	2182      	movs	r1, #130	; 0x82
     21e:	2340      	movs	r3, #64	; 0x40
     220:	4620      	mov	r0, r4
     222:	f000 fa87 	bl	0x734
     226:	2201      	movs	r2, #1
     228:	4b04      	ldr	r3, [pc, #16]	; (0x23c)
     22a:	701a      	strb	r2, [r3, #0]
     22c:	b002      	add	sp, #8
     22e:	e8bd 4010 	ldmia.w	sp!, {r4, lr}
     232:	f000 b8c9 	b.w	0x3c8
     236:	bf00      	nop
     238:	0241      	lsls	r1, r0, #9
     23a:	0800      	lsrs	r0, r0, #32
     23c:	011f      	lsls	r7, r3, #4
     23e:	2000      	movs	r0, #0
     240:	b570      	push	{r4, r5, r6, lr}
     242:	b090      	sub	sp, #64	; 0x40
     244:	2340      	movs	r3, #64	; 0x40
     246:	466a      	mov	r2, sp
     248:	2101      	movs	r1, #1
     24a:	4604      	mov	r4, r0
     24c:	f000 fa99 	bl	0x782
     250:	b190      	cbz	r0, 0x278
     252:	4a0f      	ldr	r2, [pc, #60]	; (0x290)
     254:	4e0f      	ldr	r6, [pc, #60]	; (0x294)
     256:	7811      	ldrb	r1, [r2, #0]
     258:	460b      	mov	r3, r1
     25a:	4408      	add	r0, r1
     25c:	4283      	cmp	r3, r0
     25e:	db0d      	blt.n	0x27c
     260:	b2c0      	uxtb	r0, r0
     262:	2880      	cmp	r0, #128	; 0x80
     264:	7010      	strb	r0, [r2, #0]
     266:	7030      	strb	r0, [r6, #0]
     268:	d906      	bls.n	0x278
     26a:	2201      	movs	r2, #1
     26c:	4b0a      	ldr	r3, [pc, #40]	; (0x298)
     26e:	4611      	mov	r1, r2
     270:	4620      	mov	r0, r4
     272:	701a      	strb	r2, [r3, #0]
     274:	f000 fa94 	bl	0x7a0
     278:	b010      	add	sp, #64	; 0x40
     27a:	bd70      	pop	{r4, r5, r6, pc}
     27c:	1a5d      	subs	r5, r3, r1
     27e:	f10d 0c40 	add.w	ip, sp, #64	; 0x40
     282:	4465      	add	r5, ip
     284:	f815 5c40 	ldrb.w	r5, [r5, #-64]
     288:	54f5      	strb	r5, [r6, r3]
     28a:	3301      	adds	r3, #1
     28c:	b2db      	uxtb	r3, r3
     28e:	e7e5      	b.n	0x25c
     290:	011d      	lsls	r5, r3, #4
     292:	2000      	movs	r0, #0
     294:	001d      	movs	r5, r3
     296:	2000      	movs	r0, #0
     298:	011e      	lsls	r6, r3, #4
     29a:	2000      	movs	r0, #0
     29c:	b51f      	push	{r0, r1, r2, r3, r4, lr}
     29e:	4c1b      	ldr	r4, [pc, #108]	; (0x30c)
     2a0:	f240 3097 	movw	r0, #919	; 0x397
     2a4:	f000 f9fc 	bl	0x6a0
     2a8:	f240 2017 	movw	r0, #535	; 0x217
     2ac:	f000 fa05 	bl	0x6ba
     2b0:	f44f 5380 	mov.w	r3, #4096	; 0x1000
     2b4:	2200      	movs	r2, #0
     2b6:	4620      	mov	r0, r4
     2b8:	2101      	movs	r1, #1
     2ba:	f000 f8b3 	bl	0x424
     2be:	f44f 5180 	mov.w	r1, #4096	; 0x1000
     2c2:	4620      	mov	r0, r4
     2c4:	f000 f8e1 	bl	0x48a
     2c8:	2050      	movs	r0, #80	; 0x50
     2ca:	f7ff ff41 	bl	0x150
     2ce:	f7ff ff6f 	bl	0x1b0
     2d2:	f44f 7380 	mov.w	r3, #256	; 0x100
     2d6:	9302      	str	r3, [sp, #8]
     2d8:	4b0d      	ldr	r3, [pc, #52]	; (0x310)
     2da:	4a0e      	ldr	r2, [pc, #56]	; (0x314)
     2dc:	9301      	str	r3, [sp, #4]
     2de:	2304      	movs	r3, #4
     2e0:	490d      	ldr	r1, [pc, #52]	; (0x318)
     2e2:	9300      	str	r3, [sp, #0]
     2e4:	480d      	ldr	r0, [pc, #52]	; (0x31c)
     2e6:	4b0e      	ldr	r3, [pc, #56]	; (0x320)
     2e8:	f000 f9f8 	bl	0x6dc
     2ec:	4b0d      	ldr	r3, [pc, #52]	; (0x324)
     2ee:	490e      	ldr	r1, [pc, #56]	; (0x328)
     2f0:	6018      	str	r0, [r3, #0]
     2f2:	f000 fdca 	bl	0xe8a
     2f6:	2180      	movs	r1, #128	; 0x80
     2f8:	2014      	movs	r0, #20
     2fa:	f000 ff07 	bl	0x110c
     2fe:	2014      	movs	r0, #20
     300:	b004      	add	sp, #16
     302:	e8bd 4010 	ldmia.w	sp!, {r4, lr}
     306:	f000 bef3 	b.w	0x10f0
     30a:	bf00      	nop
     30c:	0800      	lsrs	r0, r0, #32
     30e:	4001      	ands	r1, r0
     310:	0128      	lsls	r0, r5, #4
     312:	2000      	movs	r0, #0
     314:	16b6      	asrs	r6, r6, #26
     316:	0800      	lsrs	r0, r0, #32
     318:	16d4      	asrs	r4, r2, #27
     31a:	0800      	lsrs	r0, r0, #32
     31c:	16f8      	asrs	r0, r7, #27
     31e:	0800      	lsrs	r0, r0, #32
     320:	16c4      	asrs	r4, r0, #27
     322:	0800      	lsrs	r0, r0, #32
     324:	0124      	lsls	r4, r4, #4
     326:	2000      	movs	r0, #0
     328:	0205      	lsls	r5, r0, #8
     32a:	0800      	lsrs	r0, r0, #32
     32c:	b5f0      	push	{r4, r5, r6, r7, lr}
     32e:	4b1d      	ldr	r3, [pc, #116]	; (0x3a4)
     330:	b091      	sub	sp, #68	; 0x44
     332:	781b      	ldrb	r3, [r3, #0]
     334:	b353      	cbz	r3, 0x38c
     336:	4d1c      	ldr	r5, [pc, #112]	; (0x3a8)
     338:	782b      	ldrb	r3, [r5, #0]
     33a:	b33b      	cbz	r3, 0x38c
     33c:	4c1b      	ldr	r4, [pc, #108]	; (0x3ac)
     33e:	4e1c      	ldr	r6, [pc, #112]	; (0x3b0)
     340:	7822      	ldrb	r2, [r4, #0]
     342:	0190      	lsls	r0, r2, #6
     344:	3201      	adds	r2, #1
     346:	b2c3      	uxtb	r3, r0
     348:	0192      	lsls	r2, r2, #6
     34a:	4293      	cmp	r3, r2
     34c:	db20      	blt.n	0x390
     34e:	4f19      	ldr	r7, [pc, #100]	; (0x3b4)
     350:	2340      	movs	r3, #64	; 0x40
     352:	466a      	mov	r2, sp
     354:	2182      	movs	r1, #130	; 0x82
     356:	6838      	ldr	r0, [r7, #0]
     358:	f000 fa0c 	bl	0x774
     35c:	b110      	cbz	r0, 0x364
     35e:	7823      	ldrb	r3, [r4, #0]
     360:	3301      	adds	r3, #1
     362:	7023      	strb	r3, [r4, #0]
     364:	7823      	ldrb	r3, [r4, #0]
     366:	2b03      	cmp	r3, #3
     368:	d110      	bne.n	0x38c
     36a:	2300      	movs	r3, #0
     36c:	461e      	mov	r6, r3
     36e:	4a10      	ldr	r2, [pc, #64]	; (0x3b0)
     370:	549e      	strb	r6, [r3, r2]
     372:	3301      	adds	r3, #1
     374:	f5b3 7f80 	cmp.w	r3, #256	; 0x100
     378:	d1fa      	bne.n	0x370
     37a:	2200      	movs	r2, #0
     37c:	2101      	movs	r1, #1
     37e:	6838      	ldr	r0, [r7, #0]
     380:	f000 fa0e 	bl	0x7a0
     384:	4b0c      	ldr	r3, [pc, #48]	; (0x3b8)
     386:	702e      	strb	r6, [r5, #0]
     388:	7026      	strb	r6, [r4, #0]
     38a:	701e      	strb	r6, [r3, #0]
     38c:	b011      	add	sp, #68	; 0x44
     38e:	bdf0      	pop	{r4, r5, r6, r7, pc}
     390:	1a19      	subs	r1, r3, r0
     392:	af10      	add	r7, sp, #64	; 0x40
     394:	4439      	add	r1, r7
     396:	5cf7      	ldrb	r7, [r6, r3]
     398:	3301      	adds	r3, #1
     39a:	f801 7c40 	strb.w	r7, [r1, #-64]
     39e:	b2db      	uxtb	r3, r3
     3a0:	e7d3      	b.n	0x34a
     3a2:	bf00      	nop
     3a4:	011f      	lsls	r7, r3, #4
     3a6:	2000      	movs	r0, #0
     3a8:	011e      	lsls	r6, r3, #4
     3aa:	2000      	movs	r0, #0
     3ac:	0120      	lsls	r0, r4, #4
     3ae:	2000      	movs	r0, #0
     3b0:	001d      	movs	r5, r3
     3b2:	2000      	movs	r0, #0
     3b4:	0124      	lsls	r4, r4, #4
     3b6:	2000      	movs	r0, #0
     3b8:	011d      	lsls	r5, r3, #4
     3ba:	2000      	movs	r0, #0
     3bc:	4b01      	ldr	r3, [pc, #4]	; (0x3c4)
     3be:	6818      	ldr	r0, [r3, #0]
     3c0:	f000 b9b4 	b.w	0x72c
     3c4:	0124      	lsls	r4, r4, #4
     3c6:	2000      	movs	r0, #0
     3c8:	b538      	push	{r3, r4, r5, lr}
     3ca:	2408      	movs	r4, #8
     3cc:	4d05      	ldr	r5, [pc, #20]	; (0x3e4)
     3ce:	f44f 5100 	mov.w	r1, #8192	; 0x2000
     3d2:	4628      	mov	r0, r5
     3d4:	f000 f85c 	bl	0x490
     3d8:	20c8      	movs	r0, #200	; 0xc8
     3da:	f7ff feb9 	bl	0x150
     3de:	3c01      	subs	r4, #1
     3e0:	d1f5      	bne.n	0x3ce
     3e2:	bd38      	pop	{r3, r4, r5, pc}
     3e4:	1000      	asrs	r0, r0, #32
     3e6:	4001      	ands	r1, r0
     3e8:	b510      	push	{r4, lr}
     3ea:	f000 f913 	bl	0x614
     3ee:	4c0c      	ldr	r4, [pc, #48]	; (0x420)
     3f0:	f240 3002 	movw	r0, #770	; 0x302
     3f4:	f000 f954 	bl	0x6a0
     3f8:	f44f 7041 	mov.w	r0, #772	; 0x304
     3fc:	f000 f950 	bl	0x6a0
     400:	4620      	mov	r0, r4
     402:	f44f 5300 	mov.w	r3, #8192	; 0x2000
     406:	2200      	movs	r2, #0
     408:	2102      	movs	r1, #2
     40a:	f000 f80b 	bl	0x424
     40e:	4620      	mov	r0, r4
     410:	f44f 5100 	mov.w	r1, #8192	; 0x2000
     414:	f000 f837 	bl	0x486
     418:	e8bd 4010 	ldmia.w	sp!, {r4, lr}
     41c:	f7ff bea2 	b.w	0x164
     420:	1000      	asrs	r0, r0, #32
     422:	4001      	ands	r1, r0
     424:	e92d 43f0 	stmdb	sp!, {r4, r5, r6, r7, r8, r9, lr}
     428:	2600      	movs	r6, #0
     42a:	f04f 0e0f 	mov.w	lr, #15
     42e:	f643 78f8 	movw	r8, #16376	; 0x3ff8
     432:	469c      	mov	ip, r3
     434:	6803      	ldr	r3, [r0, #0]
     436:	6847      	ldr	r7, [r0, #4]
     438:	fa4c f406 	asr.w	r4, ip, r6
     43c:	07e4      	lsls	r4, r4, #31
     43e:	d51b      	bpl.n	0x478
     440:	2e07      	cmp	r6, #7
     442:	bf94      	ite	ls
     444:	4699      	movls	r9, r3
     446:	46b9      	movhi	r9, r7
     448:	b2b4      	uxth	r4, r6
     44a:	bf8b      	itete	hi
     44c:	4444      	addhi	r4, r8
     44e:	00a4      	lslls	r4, r4, #2
     450:	00a4      	lslhi	r4, r4, #2
     452:	b2a4      	uxthls	r4, r4
     454:	bf88      	it	hi
     456:	b2a4      	uxthhi	r4, r4
     458:	fa0e f504 	lsl.w	r5, lr, r4
     45c:	ea29 0905 	bic.w	r9, r9, r5
     460:	1ca5      	adds	r5, r4, #2
     462:	fa02 f505 	lsl.w	r5, r2, r5
     466:	fa01 f404 	lsl.w	r4, r1, r4
     46a:	432c      	orrs	r4, r5
     46c:	ea44 0409 	orr.w	r4, r4, r9
     470:	2e08      	cmp	r6, #8
     472:	bf2c      	ite	cs
     474:	4627      	movcs	r7, r4
     476:	4623      	movcc	r3, r4
     478:	3601      	adds	r6, #1
     47a:	2e10      	cmp	r6, #16
     47c:	d1dc      	bne.n	0x438
     47e:	6003      	str	r3, [r0, #0]
     480:	6047      	str	r7, [r0, #4]
     482:	e8bd 83f0 	ldmia.w	sp!, {r4, r5, r6, r7, r8, r9, pc}
     486:	6101      	str	r1, [r0, #16]
     488:	4770      	bx	lr
     48a:	0409      	lsls	r1, r1, #16
     48c:	6101      	str	r1, [r0, #16]
     48e:	4770      	bx	lr
     490:	68c3      	ldr	r3, [r0, #12]
     492:	ea01 0203 	and.w	r2, r1, r3
     496:	ea21 0103 	bic.w	r1, r1, r3
     49a:	ea41 4102 	orr.w	r1, r1, r2, lsl #16
     49e:	6101      	str	r1, [r0, #16]
     4a0:	4770      	bx	lr
     4a2:	0000      	movs	r0, r0
     4a4:	4a02      	ldr	r2, [pc, #8]	; (0x4b0)
     4a6:	6813      	ldr	r3, [r2, #0]
     4a8:	f043 7380 	orr.w	r3, r3, #16777216	; 0x1000000
     4ac:	6013      	str	r3, [r2, #0]
     4ae:	4770      	bx	lr
     4b0:	1000      	asrs	r0, r0, #32
     4b2:	4002      	ands	r2, r0
     4b4:	2806      	cmp	r0, #6
     4b6:	d822      	bhi.n	0x4fe
     4b8:	e8df f000 	tbb	[pc, r0]
     4bc:	0904      	lsrs	r4, r0, #4
     4be:	130e      	asrs	r6, r1, #12
     4c0:	1d18      	adds	r0, r3, #4
     4c2:	001f      	movs	r7, r3
     4c4:	4b0f      	ldr	r3, [pc, #60]	; (0x504)
     4c6:	6818      	ldr	r0, [r3, #0]
     4c8:	f3c0 6040 	ubfx	r0, r0, #25, #1
     4cc:	4770      	bx	lr
     4ce:	4b0d      	ldr	r3, [pc, #52]	; (0x504)
     4d0:	6818      	ldr	r0, [r3, #0]
     4d2:	f3c0 60c0 	ubfx	r0, r0, #27, #1
     4d6:	4770      	bx	lr
     4d8:	4b0a      	ldr	r3, [pc, #40]	; (0x504)
     4da:	6818      	ldr	r0, [r3, #0]
     4dc:	f3c0 7040 	ubfx	r0, r0, #29, #1
     4e0:	4770      	bx	lr
     4e2:	4b08      	ldr	r3, [pc, #32]	; (0x504)
     4e4:	6818      	ldr	r0, [r3, #0]
     4e6:	f3c0 4040 	ubfx	r0, r0, #17, #1
     4ea:	4770      	bx	lr
     4ec:	4b05      	ldr	r3, [pc, #20]	; (0x504)
     4ee:	6818      	ldr	r0, [r3, #0]
     4f0:	f3c0 0040 	ubfx	r0, r0, #1, #1
     4f4:	4770      	bx	lr
     4f6:	4b04      	ldr	r3, [pc, #16]	; (0x508)
     4f8:	e7f9      	b.n	0x4ee
     4fa:	4b04      	ldr	r3, [pc, #16]	; (0x50c)
     4fc:	e7f7      	b.n	0x4ee
     4fe:	2000      	movs	r0, #0
     500:	4770      	bx	lr
     502:	bf00      	nop
     504:	1000      	asrs	r0, r0, #32
     506:	4002      	ands	r2, r0
     508:	1020      	asrs	r0, r4, #32
     50a:	4002      	ands	r2, r0
     50c:	1024      	asrs	r4, r4, #32
     50e:	4002      	ands	r2, r0
     510:	4602      	mov	r2, r0
     512:	b508      	push	{r3, lr}
     514:	4610      	mov	r0, r2
     516:	f7ff ffcd 	bl	0x4b4
     51a:	2800      	cmp	r0, #0
     51c:	d0fa      	beq.n	0x514
     51e:	bd08      	pop	{r3, pc}
     520:	2806      	cmp	r0, #6
     522:	d80c      	bhi.n	0x53e
     524:	e8df f000 	tbb	[pc, r0]
     528:	0604      	lsls	r4, r0, #24
     52a:	110c      	asrs	r4, r1, #4
     52c:	1b16      	subs	r6, r2, r4
     52e:	001d      	movs	r5, r3
     530:	f7ff bfb8 	b.w	0x4a4
     534:	4a0c      	ldr	r2, [pc, #48]	; (0x568)
     536:	6813      	ldr	r3, [r2, #0]
     538:	f043 6380 	orr.w	r3, r3, #67108864	; 0x4000000
     53c:	6013      	str	r3, [r2, #0]
     53e:	4770      	bx	lr
     540:	4a09      	ldr	r2, [pc, #36]	; (0x568)
     542:	6813      	ldr	r3, [r2, #0]
     544:	f043 5380 	orr.w	r3, r3, #268435456	; 0x10000000
     548:	e7f8      	b.n	0x53c
     54a:	4a07      	ldr	r2, [pc, #28]	; (0x568)
     54c:	6813      	ldr	r3, [r2, #0]
     54e:	f443 3380 	orr.w	r3, r3, #65536	; 0x10000
     552:	e7f3      	b.n	0x53c
     554:	4a04      	ldr	r2, [pc, #16]	; (0x568)
     556:	6813      	ldr	r3, [r2, #0]
     558:	f043 0301 	orr.w	r3, r3, #1
     55c:	e7ee      	b.n	0x53c
     55e:	4a03      	ldr	r2, [pc, #12]	; (0x56c)
     560:	e7f9      	b.n	0x556
     562:	4a03      	ldr	r2, [pc, #12]	; (0x570)
     564:	e7f7      	b.n	0x556
     566:	bf00      	nop
     568:	1000      	asrs	r0, r0, #32
     56a:	4002      	ands	r2, r0
     56c:	1020      	asrs	r0, r4, #32
     56e:	4002      	ands	r2, r0
     570:	1024      	asrs	r4, r4, #32
     572:	4002      	ands	r2, r0
     574:	4a03      	ldr	r2, [pc, #12]	; (0x584)
     576:	6813      	ldr	r3, [r2, #0]
     578:	f023 0303 	bic.w	r3, r3, #3
     57c:	4318      	orrs	r0, r3
     57e:	6010      	str	r0, [r2, #0]
     580:	4770      	bx	lr
     582:	bf00      	nop
     584:	1004      	asrs	r4, r0, #32
     586:	4002      	ands	r2, r0
     588:	4a03      	ldr	r2, [pc, #12]	; (0x598)
     58a:	6813      	ldr	r3, [r2, #0]
     58c:	f423 1370 	bic.w	r3, r3, #3932160	; 0x3c0000
     590:	ea43 4080 	orr.w	r0, r3, r0, lsl #18
     594:	6010      	str	r0, [r2, #0]
     596:	4770      	bx	lr
     598:	1004      	asrs	r4, r0, #32
     59a:	4002      	ands	r2, r0
     59c:	4a03      	ldr	r2, [pc, #12]	; (0x5ac)
     59e:	6813      	ldr	r3, [r2, #0]
     5a0:	f423 3380 	bic.w	r3, r3, #65536	; 0x10000
     5a4:	ea43 4000 	orr.w	r0, r3, r0, lsl #16
     5a8:	6010      	str	r0, [r2, #0]
     5aa:	4770      	bx	lr
     5ac:	1004      	asrs	r4, r0, #32
     5ae:	4002      	ands	r2, r0
     5b0:	4a03      	ldr	r2, [pc, #12]	; (0x5c0)
     5b2:	6813      	ldr	r3, [r2, #0]
     5b4:	f423 3300 	bic.w	r3, r3, #131072	; 0x20000
     5b8:	ea43 4040 	orr.w	r0, r3, r0, lsl #17
     5bc:	6010      	str	r0, [r2, #0]
     5be:	4770      	bx	lr
     5c0:	1004      	asrs	r4, r0, #32
     5c2:	4002      	ands	r2, r0
     5c4:	4a03      	ldr	r2, [pc, #12]	; (0x5d4)
     5c6:	6813      	ldr	r3, [r2, #0]
     5c8:	f423 4340 	bic.w	r3, r3, #49152	; 0xc000
     5cc:	ea43 3080 	orr.w	r0, r3, r0, lsl #14
     5d0:	6010      	str	r0, [r2, #0]
     5d2:	4770      	bx	lr
     5d4:	1004      	asrs	r4, r0, #32
     5d6:	4002      	ands	r2, r0
     5d8:	4a03      	ldr	r2, [pc, #12]	; (0x5e8)
     5da:	6813      	ldr	r3, [r2, #0]
     5dc:	f423 5360 	bic.w	r3, r3, #14336	; 0x3800
     5e0:	ea43 20c0 	orr.w	r0, r3, r0, lsl #11
     5e4:	6010      	str	r0, [r2, #0]
     5e6:	4770      	bx	lr
     5e8:	1004      	asrs	r4, r0, #32
     5ea:	4002      	ands	r2, r0
     5ec:	4a03      	ldr	r2, [pc, #12]	; (0x5fc)
     5ee:	6813      	ldr	r3, [r2, #0]
     5f0:	f423 63e0 	bic.w	r3, r3, #1792	; 0x700
     5f4:	ea43 2000 	orr.w	r0, r3, r0, lsl #8
     5f8:	6010      	str	r0, [r2, #0]
     5fa:	4770      	bx	lr
     5fc:	1004      	asrs	r4, r0, #32
     5fe:	4002      	ands	r2, r0
     600:	4a03      	ldr	r2, [pc, #12]	; (0x610)
     602:	6813      	ldr	r3, [r2, #0]
     604:	f023 03f0 	bic.w	r3, r3, #240	; 0xf0
     608:	ea43 1000 	orr.w	r0, r3, r0, lsl #4
     60c:	6010      	str	r0, [r2, #0]
     60e:	4770      	bx	lr
     610:	1004      	asrs	r4, r0, #32
     612:	4002      	ands	r2, r0
     614:	b508      	push	{r3, lr}
     616:	2004      	movs	r0, #4
     618:	f7ff ff82 	bl	0x520
     61c:	2004      	movs	r0, #4
     61e:	f7ff ff77 	bl	0x510
     622:	2000      	movs	r0, #0
     624:	f7ff ffa6 	bl	0x574
     628:	2003      	movs	r0, #3
     62a:	f7ff ff79 	bl	0x520
     62e:	2003      	movs	r0, #3
     630:	f7ff ff6e 	bl	0x510
     634:	2001      	movs	r0, #1
     636:	f7ff ff9d 	bl	0x574
     63a:	2000      	movs	r0, #0
     63c:	f7ff ffe0 	bl	0x600
     640:	2003      	movs	r0, #3
     642:	f7ff ffbf 	bl	0x5c4
     646:	2004      	movs	r0, #4
     648:	f7ff ffd0 	bl	0x5ec
     64c:	2000      	movs	r0, #0
     64e:	f7ff ffc3 	bl	0x5d8
     652:	2002      	movs	r0, #2
     654:	f000 fd6a 	bl	0x112c
     658:	2007      	movs	r0, #7
     65a:	f7ff ff95 	bl	0x588
     65e:	2001      	movs	r0, #1
     660:	f7ff ff9c 	bl	0x59c
     664:	2000      	movs	r0, #0
     666:	f7ff ffa3 	bl	0x5b0
     66a:	f7ff ff1b 	bl	0x4a4
     66e:	2000      	movs	r0, #0
     670:	f7ff ff4e 	bl	0x510
     674:	2002      	movs	r0, #2
     676:	f7ff ff7d 	bl	0x574
     67a:	4b04      	ldr	r3, [pc, #16]	; (0x68c)
     67c:	4a04      	ldr	r2, [pc, #16]	; (0x690)
     67e:	4905      	ldr	r1, [pc, #20]	; (0x694)
     680:	6013      	str	r3, [r2, #0]
     682:	4a05      	ldr	r2, [pc, #20]	; (0x698)
     684:	6011      	str	r1, [r2, #0]
     686:	4a05      	ldr	r2, [pc, #20]	; (0x69c)
     688:	6013      	str	r3, [r2, #0]
     68a:	bd08      	pop	{r3, pc}
     68c:	a200      	add	r2, pc, #0	; (adr r2, 0x690)
     68e:	044a      	lsls	r2, r1, #17
     690:	0000      	movs	r0, r0
     692:	2000      	movs	r0, #0
     694:	5100      	str	r0, [r0, r4]
     696:	0225      	lsls	r5, r4, #8
     698:	0004      	movs	r4, r0
     69a:	2000      	movs	r0, #0
     69c:	0008      	movs	r0, r1
     69e:	2000      	movs	r0, #0
     6a0:	0943      	lsrs	r3, r0, #5
     6a2:	f000 021f 	and.w	r2, r0, #31
     6a6:	2001      	movs	r0, #1
     6a8:	f103 4380 	add.w	r3, r3, #1073741824	; 0x40000000
     6ac:	f503 3304 	add.w	r3, r3, #135168	; 0x21000
     6b0:	6819      	ldr	r1, [r3, #0]
     6b2:	4090      	lsls	r0, r2
     6b4:	4308      	orrs	r0, r1
     6b6:	6018      	str	r0, [r3, #0]
     6b8:	4770      	bx	lr
     6ba:	f000 021f 	and.w	r2, r0, #31
     6be:	0943      	lsrs	r3, r0, #5
     6c0:	2001      	movs	r0, #1
     6c2:	f103 4380 	add.w	r3, r3, #1073741824	; 0x40000000
     6c6:	f503 3304 	add.w	r3, r3, #135168	; 0x21000
     6ca:	6819      	ldr	r1, [r3, #0]
     6cc:	4090      	lsls	r0, r2
     6ce:	4301      	orrs	r1, r0
     6d0:	6019      	str	r1, [r3, #0]
     6d2:	681a      	ldr	r2, [r3, #0]
     6d4:	ea22 0000 	bic.w	r0, r2, r0
     6d8:	6018      	str	r0, [r3, #0]
     6da:	4770      	bx	lr
     6dc:	e92d 41f0 	stmdb	sp!, {r4, r5, r6, r7, r8, lr}
     6e0:	461e      	mov	r6, r3
     6e2:	6803      	ldr	r3, [r0, #0]
     6e4:	4605      	mov	r5, r0
     6e6:	4688      	mov	r8, r1
     6e8:	4617      	mov	r7, r2
     6ea:	4798      	blx	r3
     6ec:	9b06      	ldr	r3, [sp, #24]
     6ee:	f8c0 50dc 	str.w	r5, [r0, #220]	; 0xdc
     6f2:	60c3      	str	r3, [r0, #12]
     6f4:	9b07      	ldr	r3, [sp, #28]
     6f6:	e9c0 8700 	strd	r8, r7, [r0]
     6fa:	6103      	str	r3, [r0, #16]
     6fc:	f8bd 3020 	ldrh.w	r3, [sp, #32]
     700:	6086      	str	r6, [r0, #8]
     702:	8283      	strh	r3, [r0, #20]
     704:	4b06      	ldr	r3, [pc, #24]	; (0x720)
     706:	6703      	str	r3, [r0, #112]	; 0x70
     708:	4b06      	ldr	r3, [pc, #24]	; (0x724)
     70a:	66c3      	str	r3, [r0, #108]	; 0x6c
     70c:	4b06      	ldr	r3, [pc, #24]	; (0x728)
     70e:	6683      	str	r3, [r0, #104]	; 0x68
     710:	2300      	movs	r3, #0
     712:	e9c0 3332 	strd	r3, r3, [r0, #200]	; 0xc8
     716:	e9c0 3334 	strd	r3, r3, [r0, #208]	; 0xd0
     71a:	e8bd 81f0 	ldmia.w	sp!, {r4, r5, r6, r7, r8, pc}
     71e:	bf00      	nop
     720:	0917      	lsrs	r7, r2, #4
     722:	0800      	lsrs	r0, r0, #32
     724:	0977      	lsrs	r7, r6, #5
     726:	0800      	lsrs	r0, r0, #32
     728:	09f9      	lsrs	r1, r7, #7
     72a:	0800      	lsrs	r0, r0, #32
     72c:	f8d0 30dc 	ldr.w	r3, [r0, #220]	; 0xdc
     730:	6a5b      	ldr	r3, [r3, #36]	; 0x24
     732:	4718      	bx	r3
     734:	b410      	push	{r4}
     736:	f8d0 40dc 	ldr.w	r4, [r0, #220]	; 0xdc
     73a:	68a4      	ldr	r4, [r4, #8]
     73c:	46a4      	mov	ip, r4
     73e:	bc10      	pop	{r4}
     740:	4760      	bx	ip
     742:	b537      	push	{r0, r1, r2, r4, r5, lr}
     744:	2500      	movs	r5, #0
     746:	4604      	mov	r4, r0
     748:	6803      	ldr	r3, [r0, #0]
     74a:	82c5      	strh	r5, [r0, #22]
     74c:	79db      	ldrb	r3, [r3, #7]
     74e:	462a      	mov	r2, r5
     750:	4629      	mov	r1, r5
     752:	9500      	str	r5, [sp, #0]
     754:	f7ff ffee 	bl	0x734
     758:	f8d4 30dc 	ldr.w	r3, [r4, #220]	; 0xdc
     75c:	4629      	mov	r1, r5
     75e:	685b      	ldr	r3, [r3, #4]
     760:	4620      	mov	r0, r4
     762:	4798      	blx	r3
     764:	69e3      	ldr	r3, [r4, #28]
     766:	b11b      	cbz	r3, 0x770
     768:	b003      	add	sp, #12
     76a:	e8bd 4030 	ldmia.w	sp!, {r4, r5, lr}
     76e:	4718      	bx	r3
     770:	b003      	add	sp, #12
     772:	bd30      	pop	{r4, r5, pc}
     774:	b410      	push	{r4}
     776:	f8d0 40dc 	ldr.w	r4, [r0, #220]	; 0xdc
     77a:	69e4      	ldr	r4, [r4, #28]
     77c:	46a4      	mov	ip, r4
     77e:	bc10      	pop	{r4}
     780:	4760      	bx	ip
     782:	b410      	push	{r4}
     784:	f8d0 40dc 	ldr.w	r4, [r0, #220]	; 0xdc
     788:	6a24      	ldr	r4, [r4, #32]
     78a:	46a4      	mov	ip, r4
     78c:	bc10      	pop	{r4}
     78e:	4760      	bx	ip
     790:	f8d0 30dc 	ldr.w	r3, [r0, #220]	; 0xdc
     794:	691b      	ldr	r3, [r3, #16]
     796:	4718      	bx	r3
     798:	f8d0 30dc 	ldr.w	r3, [r0, #220]	; 0xdc
     79c:	699b      	ldr	r3, [r3, #24]
     79e:	4718      	bx	r3
     7a0:	f8d0 30dc 	ldr.w	r3, [r0, #220]	; 0xdc
     7a4:	695b      	ldr	r3, [r3, #20]
     7a6:	4718      	bx	r3
     7a8:	b510      	push	{r4, lr}
     7aa:	6803      	ldr	r3, [r0, #0]
     7ac:	4604      	mov	r4, r0
     7ae:	79d9      	ldrb	r1, [r3, #7]
     7b0:	8f83      	ldrh	r3, [r0, #60]	; 0x3c
     7b2:	6b82      	ldr	r2, [r0, #56]	; 0x38
     7b4:	4299      	cmp	r1, r3
     7b6:	d20f      	bcs.n	0x7d8
     7b8:	460b      	mov	r3, r1
     7ba:	2100      	movs	r1, #0
     7bc:	f7ff ffda 	bl	0x774
     7c0:	2302      	movs	r3, #2
     7c2:	f884 302c 	strb.w	r3, [r4, #44]	; 0x2c
     7c6:	6823      	ldr	r3, [r4, #0]
     7c8:	6ba2      	ldr	r2, [r4, #56]	; 0x38
     7ca:	79d9      	ldrb	r1, [r3, #7]
     7cc:	8fa3      	ldrh	r3, [r4, #60]	; 0x3c
     7ce:	440a      	add	r2, r1
     7d0:	1a5b      	subs	r3, r3, r1
     7d2:	63a2      	str	r2, [r4, #56]	; 0x38
     7d4:	87a3      	strh	r3, [r4, #60]	; 0x3c
     7d6:	bd10      	pop	{r4, pc}
     7d8:	2100      	movs	r1, #0
     7da:	f7ff ffcb 	bl	0x774
     7de:	f894 3044 	ldrb.w	r3, [r4, #68]	; 0x44
     7e2:	2b00      	cmp	r3, #0
     7e4:	bf0c      	ite	eq
     7e6:	2303      	moveq	r3, #3
     7e8:	2302      	movne	r3, #2
     7ea:	f884 302c 	strb.w	r3, [r4, #44]	; 0x2c
     7ee:	2300      	movs	r3, #0
     7f0:	f884 3044 	strb.w	r3, [r4, #68]	; 0x44
     7f4:	87a3      	strh	r3, [r4, #60]	; 0x3c
     7f6:	63a3      	str	r3, [r4, #56]	; 0x38
     7f8:	e7ed      	b.n	0x7d6
     7fa:	e92d 4ff7 	stmdb	sp!, {r0, r1, r2, r4, r5, r6, r7, r8, r9, sl, fp, lr}
     7fe:	4604      	mov	r4, r0
     800:	460e      	mov	r6, r1
     802:	f100 0548 	add.w	r5, r0, #72	; 0x48
     806:	f100 0b68 	add.w	fp, r0, #104	; 0x68
     80a:	f100 0738 	add.w	r7, r0, #56	; 0x38
     80e:	f100 083c 	add.w	r8, r0, #60	; 0x3c
     812:	f100 0a40 	add.w	sl, r0, #64	; 0x40
     816:	f8d5 9000 	ldr.w	r9, [r5]
     81a:	f1b9 0f00 	cmp.w	r9, #0
     81e:	d008      	beq.n	0x832
     820:	7833      	ldrb	r3, [r6, #0]
     822:	7969      	ldrb	r1, [r5, #5]
     824:	792a      	ldrb	r2, [r5, #4]
     826:	400b      	ands	r3, r1
     828:	429a      	cmp	r2, r3
     82a:	d00b      	beq.n	0x844
     82c:	3508      	adds	r5, #8
     82e:	455d      	cmp	r5, fp
     830:	d1f1      	bne.n	0x816
     832:	4643      	mov	r3, r8
     834:	463a      	mov	r2, r7
     836:	4631      	mov	r1, r6
     838:	4620      	mov	r0, r4
     83a:	b003      	add	sp, #12
     83c:	e8bd 4ff0 	ldmia.w	sp!, {r4, r5, r6, r7, r8, r9, sl, fp, lr}
     840:	f000 bb92 	b.w	0xf68
     844:	f8cd a000 	str.w	sl, [sp]
     848:	4643      	mov	r3, r8
     84a:	463a      	mov	r2, r7
     84c:	4631      	mov	r1, r6
     84e:	4620      	mov	r0, r4
     850:	47c8      	blx	r9
     852:	2801      	cmp	r0, #1
     854:	d8ea      	bhi.n	0x82c
     856:	b003      	add	sp, #12
     858:	e8bd 8ff0 	ldmia.w	sp!, {r4, r5, r6, r7, r8, r9, sl, fp, pc}
     85c:	b510      	push	{r4, lr}
     85e:	2201      	movs	r2, #1
     860:	2100      	movs	r1, #0
     862:	4604      	mov	r4, r0
     864:	f7ff ff94 	bl	0x790
     868:	2300      	movs	r3, #0
     86a:	f884 302c 	strb.w	r3, [r4, #44]	; 0x2c
     86e:	bd10      	pop	{r4, pc}
     870:	b570      	push	{r4, r5, r6, lr}
     872:	6803      	ldr	r3, [r0, #0]
     874:	8f82      	ldrh	r2, [r0, #60]	; 0x3c
     876:	8ec4      	ldrh	r4, [r0, #54]	; 0x36
     878:	79db      	ldrb	r3, [r3, #7]
     87a:	1aa4      	subs	r4, r4, r2
     87c:	429c      	cmp	r4, r3
     87e:	bfa8      	it	ge
     880:	461c      	movge	r4, r3
     882:	6b81      	ldr	r1, [r0, #56]	; 0x38
     884:	b2a6      	uxth	r6, r4
     886:	440a      	add	r2, r1
     888:	4633      	mov	r3, r6
     88a:	2100      	movs	r1, #0
     88c:	4605      	mov	r5, r0
     88e:	f7ff ff78 	bl	0x782
     892:	4286      	cmp	r6, r0
     894:	d005      	beq.n	0x8a2
     896:	4628      	mov	r0, r5
     898:	f7ff ffe0 	bl	0x85c
     89c:	f04f 30ff 	mov.w	r0, #4294967295	; 0xffffffff
     8a0:	bd70      	pop	{r4, r5, r6, pc}
     8a2:	8fab      	ldrh	r3, [r5, #60]	; 0x3c
     8a4:	b2a0      	uxth	r0, r4
     8a6:	441e      	add	r6, r3
     8a8:	87ae      	strh	r6, [r5, #60]	; 0x3c
     8aa:	e7f9      	b.n	0x8a0
     8ac:	b538      	push	{r3, r4, r5, lr}
     8ae:	6903      	ldr	r3, [r0, #16]
     8b0:	4604      	mov	r4, r0
     8b2:	6383      	str	r3, [r0, #56]	; 0x38
     8b4:	798b      	ldrb	r3, [r1, #6]
     8b6:	79ca      	ldrb	r2, [r1, #7]
     8b8:	460d      	mov	r5, r1
     8ba:	ea43 2302 	orr.w	r3, r3, r2, lsl #8
     8be:	8783      	strh	r3, [r0, #60]	; 0x3c
     8c0:	f7ff ff9b 	bl	0x7fa
     8c4:	b310      	cbz	r0, 0x90c
     8c6:	88eb      	ldrh	r3, [r5, #6]
     8c8:	b1bb      	cbz	r3, 0x8fa
     8ca:	8fa2      	ldrh	r2, [r4, #60]	; 0x3c
     8cc:	6821      	ldr	r1, [r4, #0]
     8ce:	4293      	cmp	r3, r2
     8d0:	79c9      	ldrb	r1, [r1, #7]
     8d2:	d90e      	bls.n	0x8f2
     8d4:	b17a      	cbz	r2, 0x8f6
     8d6:	fb92 f3f1 	sdiv	r3, r2, r1
     8da:	fb01 2313 	mls	r3, r1, r3, r2
     8de:	fab3 f383 	clz	r3, r3
     8e2:	095b      	lsrs	r3, r3, #5
     8e4:	f884 3044 	strb.w	r3, [r4, #68]	; 0x44
     8e8:	4620      	mov	r0, r4
     8ea:	e8bd 4038 	ldmia.w	sp!, {r3, r4, r5, lr}
     8ee:	f7ff bf5b 	b.w	0x7a8
     8f2:	2300      	movs	r3, #0
     8f4:	e7f6      	b.n	0x8e4
     8f6:	4613      	mov	r3, r2
     8f8:	e7f4      	b.n	0x8e4
     8fa:	461a      	mov	r2, r3
     8fc:	4619      	mov	r1, r3
     8fe:	4620      	mov	r0, r4
     900:	f7ff ff38 	bl	0x774
     904:	2304      	movs	r3, #4
     906:	f884 302c 	strb.w	r3, [r4, #44]	; 0x2c
     90a:	bd38      	pop	{r3, r4, r5, pc}
     90c:	4620      	mov	r0, r4
     90e:	e8bd 4038 	ldmia.w	sp!, {r3, r4, r5, lr}
     912:	f7ff bfa3 	b.w	0x85c
     916:	b570      	push	{r4, r5, r6, lr}
     918:	2500      	movs	r5, #0
     91a:	4604      	mov	r4, r0
     91c:	6405      	str	r5, [r0, #64]	; 0x40
     91e:	2201      	movs	r2, #1
     920:	4629      	mov	r1, r5
     922:	f100 0630 	add.w	r6, r0, #48	; 0x30
     926:	f7ff ff3b 	bl	0x7a0
     92a:	8ee3      	ldrh	r3, [r4, #54]	; 0x36
     92c:	b92b      	cbnz	r3, 0x93a
     92e:	4631      	mov	r1, r6
     930:	4620      	mov	r0, r4
     932:	e8bd 4070 	ldmia.w	sp!, {r4, r5, r6, lr}
     936:	f7ff bfb9 	b.w	0x8ac
     93a:	f994 2030 	ldrsb.w	r2, [r4, #48]	; 0x30
     93e:	2a00      	cmp	r2, #0
     940:	dbf5      	blt.n	0x92e
     942:	8aa2      	ldrh	r2, [r4, #20]
     944:	429a      	cmp	r2, r3
     946:	d204      	bcs.n	0x952
     948:	4620      	mov	r0, r4
     94a:	e8bd 4070 	ldmia.w	sp!, {r4, r5, r6, lr}
     94e:	f7ff bf85 	b.w	0x85c
     952:	6922      	ldr	r2, [r4, #16]
     954:	87a5      	strh	r5, [r4, #60]	; 0x3c
     956:	63a2      	str	r2, [r4, #56]	; 0x38
     958:	6822      	ldr	r2, [r4, #0]
     95a:	4620      	mov	r0, r4
     95c:	79d2      	ldrb	r2, [r2, #7]
     95e:	429a      	cmp	r2, r3
     960:	bf34      	ite	cc
     962:	2305      	movcc	r3, #5
     964:	2306      	movcs	r3, #6
     966:	2200      	movs	r2, #0
     968:	f884 302c 	strb.w	r3, [r4, #44]	; 0x2c
     96c:	4611      	mov	r1, r2
     96e:	e8bd 4070 	ldmia.w	sp!, {r4, r5, r6, lr}
     972:	f7ff bf15 	b.w	0x7a0
     976:	f890 302c 	ldrb.w	r3, [r0, #44]	; 0x2c
     97a:	b510      	push	{r4, lr}
     97c:	2b06      	cmp	r3, #6
     97e:	4604      	mov	r4, r0
     980:	d012      	beq.n	0x9a8
     982:	2b07      	cmp	r3, #7
     984:	d027      	beq.n	0x9d6
     986:	2b05      	cmp	r3, #5
     988:	d121      	bne.n	0x9ce
     98a:	f7ff ff71 	bl	0x870
     98e:	2800      	cmp	r0, #0
     990:	db09      	blt.n	0x9a6
     992:	8fa2      	ldrh	r2, [r4, #60]	; 0x3c
     994:	8ee3      	ldrh	r3, [r4, #54]	; 0x36
     996:	1a9b      	subs	r3, r3, r2
     998:	6822      	ldr	r2, [r4, #0]
     99a:	79d2      	ldrb	r2, [r2, #7]
     99c:	4293      	cmp	r3, r2
     99e:	dc02      	bgt.n	0x9a6
     9a0:	2306      	movs	r3, #6
     9a2:	f884 302c 	strb.w	r3, [r4, #44]	; 0x2c
     9a6:	bd10      	pop	{r4, pc}
     9a8:	f7ff ff62 	bl	0x870
     9ac:	2800      	cmp	r0, #0
     9ae:	dbfa      	blt.n	0x9a6
     9b0:	f104 0130 	add.w	r1, r4, #48	; 0x30
     9b4:	4620      	mov	r0, r4
     9b6:	f7ff ff20 	bl	0x7fa
     9ba:	b138      	cbz	r0, 0x9cc
     9bc:	2300      	movs	r3, #0
     9be:	4620      	mov	r0, r4
     9c0:	461a      	mov	r2, r3
     9c2:	4619      	mov	r1, r3
     9c4:	f7ff fed6 	bl	0x774
     9c8:	2304      	movs	r3, #4
     9ca:	e7ea      	b.n	0x9a2
     9cc:	4620      	mov	r0, r4
     9ce:	e8bd 4010 	ldmia.w	sp!, {r4, lr}
     9d2:	f7ff bf43 	b.w	0x85c
     9d6:	2300      	movs	r3, #0
     9d8:	461a      	mov	r2, r3
     9da:	4619      	mov	r1, r3
     9dc:	f7ff fed1 	bl	0x782
     9e0:	2300      	movs	r3, #0
     9e2:	f884 302c 	strb.w	r3, [r4, #44]	; 0x2c
     9e6:	6c23      	ldr	r3, [r4, #64]	; 0x40
     9e8:	b11b      	cbz	r3, 0x9f2
     9ea:	f104 0130 	add.w	r1, r4, #48	; 0x30
     9ee:	4620      	mov	r0, r4
     9f0:	4798      	blx	r3
     9f2:	2300      	movs	r3, #0
     9f4:	6423      	str	r3, [r4, #64]	; 0x40
     9f6:	e7d6      	b.n	0x9a6
     9f8:	f890 302c 	ldrb.w	r3, [r0, #44]	; 0x2c
     9fc:	b510      	push	{r4, lr}
     9fe:	2b03      	cmp	r3, #3
     a00:	4604      	mov	r4, r0
     a02:	d007      	beq.n	0xa14
     a04:	2b04      	cmp	r3, #4
     a06:	d00e      	beq.n	0xa26
     a08:	2b02      	cmp	r3, #2
     a0a:	d123      	bne.n	0xa54
     a0c:	e8bd 4010 	ldmia.w	sp!, {r4, lr}
     a10:	f7ff beca 	b.w	0x7a8
     a14:	2307      	movs	r3, #7
     a16:	e8bd 4010 	ldmia.w	sp!, {r4, lr}
     a1a:	2200      	movs	r2, #0
     a1c:	f880 302c 	strb.w	r3, [r0, #44]	; 0x2c
     a20:	4611      	mov	r1, r2
     a22:	f7ff bebd 	b.w	0x7a0
     a26:	6c03      	ldr	r3, [r0, #64]	; 0x40
     a28:	b113      	cbz	r3, 0xa30
     a2a:	f100 0130 	add.w	r1, r0, #48	; 0x30
     a2e:	4798      	blx	r3
     a30:	f894 3030 	ldrb.w	r3, [r4, #48]	; 0x30
     a34:	b953      	cbnz	r3, 0xa4c
     a36:	f894 3031 	ldrb.w	r3, [r4, #49]	; 0x31
     a3a:	2b05      	cmp	r3, #5
     a3c:	d106      	bne.n	0xa4c
     a3e:	8e61      	ldrh	r1, [r4, #50]	; 0x32
     a40:	f8d4 30dc 	ldr.w	r3, [r4, #220]	; 0xdc
     a44:	b2c9      	uxtb	r1, r1
     a46:	685b      	ldr	r3, [r3, #4]
     a48:	4620      	mov	r0, r4
     a4a:	4798      	blx	r3
     a4c:	2300      	movs	r3, #0
     a4e:	f884 302c 	strb.w	r3, [r4, #44]	; 0x2c
     a52:	bd10      	pop	{r4, pc}
     a54:	e8bd 4010 	ldmia.w	sp!, {r4, lr}
     a58:	f7ff bf00 	b.w	0x85c
     a5c:	b5f8      	push	{r3, r4, r5, r6, r7, lr}
     a5e:	460d      	mov	r5, r1
     a60:	8849      	ldrh	r1, [r1, #2]
     a62:	4604      	mov	r4, r0
     a64:	b179      	cbz	r1, 0xa86
     a66:	6803      	ldr	r3, [r0, #0]
     a68:	260d      	movs	r6, #13
     a6a:	7c58      	ldrb	r0, [r3, #17]
     a6c:	2300      	movs	r3, #0
     a6e:	4298      	cmp	r0, r3
     a70:	d801      	bhi.n	0xa76
     a72:	2000      	movs	r0, #0
     a74:	bdf8      	pop	{r3, r4, r5, r6, r7, pc}
     a76:	6862      	ldr	r2, [r4, #4]
     a78:	fb06 2203 	mla	r2, r6, r3, r2
     a7c:	7952      	ldrb	r2, [r2, #5]
     a7e:	428a      	cmp	r2, r1
     a80:	d003      	beq.n	0xa8a
     a82:	3301      	adds	r3, #1
     a84:	e7f3      	b.n	0xa6e
     a86:	f04f 33ff 	mov.w	r3, #4294967295	; 0xffffffff
     a8a:	3301      	adds	r3, #1
     a8c:	b2db      	uxtb	r3, r3
     a8e:	75e3      	strb	r3, [r4, #23]
     a90:	b94b      	cbnz	r3, 0xaa6
     a92:	f8d4 30dc 	ldr.w	r3, [r4, #220]	; 0xdc
     a96:	4620      	mov	r0, r4
     a98:	68db      	ldr	r3, [r3, #12]
     a9a:	4798      	blx	r3
     a9c:	f8d4 30c8 	ldr.w	r3, [r4, #200]	; 0xc8
     aa0:	b99b      	cbnz	r3, 0xaca
     aa2:	2001      	movs	r0, #1
     aa4:	e7e6      	b.n	0xa74
     aa6:	220d      	movs	r2, #13
     aa8:	4353      	muls	r3, r2
     aaa:	6862      	ldr	r2, [r4, #4]
     aac:	3b0d      	subs	r3, #13
     aae:	4413      	add	r3, r2
     ab0:	2200      	movs	r2, #0
     ab2:	4610      	mov	r0, r2
     ab4:	7919      	ldrb	r1, [r3, #4]
     ab6:	4291      	cmp	r1, r2
     ab8:	d9eb      	bls.n	0xa92
     aba:	f8d3 1009 	ldr.w	r1, [r3, #9]
     abe:	0116      	lsls	r6, r2, #4
     ac0:	5871      	ldr	r1, [r6, r1]
     ac2:	b101      	cbz	r1, 0xac6
     ac4:	7008      	strb	r0, [r1, #0]
     ac6:	3201      	adds	r2, #1
     ac8:	e7f4      	b.n	0xab4
     aca:	2300      	movs	r3, #0
     acc:	f104 06c8 	add.w	r6, r4, #200	; 0xc8
     ad0:	64a3      	str	r3, [r4, #72]	; 0x48
     ad2:	6523      	str	r3, [r4, #80]	; 0x50
     ad4:	65a3      	str	r3, [r4, #88]	; 0x58
     ad6:	6623      	str	r3, [r4, #96]	; 0x60
     ad8:	f104 07d8 	add.w	r7, r4, #216	; 0xd8
     adc:	f856 3b04 	ldr.w	r3, [r6], #4
     ae0:	b113      	cbz	r3, 0xae8
     ae2:	8869      	ldrh	r1, [r5, #2]
     ae4:	4620      	mov	r0, r4
     ae6:	4798      	blx	r3
     ae8:	42b7      	cmp	r7, r6
     aea:	d1f7      	bne.n	0xadc
     aec:	e7d9      	b.n	0xaa2
     aee:	8819      	ldrh	r1, [r3, #0]
     af0:	6812      	ldr	r2, [r2, #0]
     af2:	2901      	cmp	r1, #1
     af4:	bf84      	itt	hi
     af6:	2101      	movhi	r1, #1
     af8:	8019      	strhhi	r1, [r3, #0]
     afa:	7dc3      	ldrb	r3, [r0, #23]
     afc:	b12b      	cbz	r3, 0xb0a
     afe:	6841      	ldr	r1, [r0, #4]
     b00:	200d      	movs	r0, #13
     b02:	fb00 1303 	mla	r3, r0, r3, r1
     b06:	f813 3c08 	ldrb.w	r3, [r3, #-8]
     b0a:	7013      	strb	r3, [r2, #0]
     b0c:	2001      	movs	r0, #1
     b0e:	4770      	bx	lr
     b10:	b530      	push	{r4, r5, lr}
     b12:	240d      	movs	r4, #13
     b14:	7dc5      	ldrb	r5, [r0, #23]
     b16:	6840      	ldr	r0, [r0, #4]
     b18:	436c      	muls	r4, r5
     b1a:	3c0d      	subs	r4, #13
     b1c:	4404      	add	r4, r0
     b1e:	888d      	ldrh	r5, [r1, #4]
     b20:	7920      	ldrb	r0, [r4, #4]
     b22:	4285      	cmp	r5, r0
     b24:	d20c      	bcs.n	0xb40
     b26:	2001      	movs	r0, #1
     b28:	8018      	strh	r0, [r3, #0]
     b2a:	888b      	ldrh	r3, [r1, #4]
     b2c:	f8d4 0009 	ldr.w	r0, [r4, #9]
     b30:	011b      	lsls	r3, r3, #4
     b32:	581b      	ldr	r3, [r3, r0]
     b34:	b103      	cbz	r3, 0xb38
     b36:	781b      	ldrb	r3, [r3, #0]
     b38:	2001      	movs	r0, #1
     b3a:	6812      	ldr	r2, [r2, #0]
     b3c:	7013      	strb	r3, [r2, #0]
     b3e:	bd30      	pop	{r4, r5, pc}
     b40:	2000      	movs	r0, #0
     b42:	e7fc      	b.n	0xb3e
     b44:	8819      	ldrh	r1, [r3, #0]
     b46:	2001      	movs	r0, #1
     b48:	2902      	cmp	r1, #2
     b4a:	bf84      	itt	hi
     b4c:	2102      	movhi	r1, #2
     b4e:	8019      	strhhi	r1, [r3, #0]
     b50:	2300      	movs	r3, #0
     b52:	6811      	ldr	r1, [r2, #0]
     b54:	700b      	strb	r3, [r1, #0]
     b56:	6812      	ldr	r2, [r2, #0]
     b58:	7053      	strb	r3, [r2, #1]
     b5a:	4770      	bx	lr
     b5c:	b510      	push	{r4, lr}
     b5e:	4614      	mov	r4, r2
     b60:	881a      	ldrh	r2, [r3, #0]
     b62:	2a02      	cmp	r2, #2
     b64:	bf84      	itt	hi
     b66:	2202      	movhi	r2, #2
     b68:	801a      	strhhi	r2, [r3, #0]
     b6a:	8889      	ldrh	r1, [r1, #4]
     b6c:	b2c9      	uxtb	r1, r1
     b6e:	f7ff fe13 	bl	0x798
     b72:	3000      	adds	r0, #0
     b74:	bf18      	it	ne
     b76:	2001      	movne	r0, #1
     b78:	2200      	movs	r2, #0
     b7a:	6823      	ldr	r3, [r4, #0]
     b7c:	7018      	strb	r0, [r3, #0]
     b7e:	6823      	ldr	r3, [r4, #0]
     b80:	2001      	movs	r0, #1
     b82:	705a      	strb	r2, [r3, #1]
     b84:	bd10      	pop	{r4, pc}
     b86:	b508      	push	{r3, lr}
     b88:	8889      	ldrh	r1, [r1, #4]
     b8a:	2201      	movs	r2, #1
     b8c:	b2c9      	uxtb	r1, r1
     b8e:	f7ff fdff 	bl	0x790
     b92:	2001      	movs	r0, #1
     b94:	bd08      	pop	{r3, pc}
     b96:	b508      	push	{r3, lr}
     b98:	8889      	ldrh	r1, [r1, #4]
     b9a:	2200      	movs	r2, #0
     b9c:	b2c9      	uxtb	r1, r1
     b9e:	f7ff fdf7 	bl	0x790
     ba2:	2001      	movs	r0, #1
     ba4:	bd08      	pop	{r3, pc}
     ba6:	b510      	push	{r4, lr}
     ba8:	780b      	ldrb	r3, [r1, #0]
     baa:	b973      	cbnz	r3, 0xbca
     bac:	884c      	ldrh	r4, [r1, #2]
     bae:	2c7f      	cmp	r4, #127	; 0x7f
     bb0:	d80b      	bhi.n	0xbca
     bb2:	f8d0 30dc 	ldr.w	r3, [r0, #220]	; 0xdc
     bb6:	7584      	strb	r4, [r0, #22]
     bb8:	f893 2030 	ldrb.w	r2, [r3, #48]	; 0x30
     bbc:	b11a      	cbz	r2, 0xbc6
     bbe:	8849      	ldrh	r1, [r1, #2]
     bc0:	685b      	ldr	r3, [r3, #4]
     bc2:	b2c9      	uxtb	r1, r1
     bc4:	4798      	blx	r3
     bc6:	2001      	movs	r0, #1
     bc8:	e000      	b.n	0xbcc
     bca:	2000      	movs	r0, #0
     bcc:	bd10      	pop	{r4, pc}
     bce:	220d      	movs	r2, #13
     bd0:	b570      	push	{r4, r5, r6, lr}
     bd2:	461c      	mov	r4, r3
     bd4:	7dc3      	ldrb	r3, [r0, #23]
     bd6:	435a      	muls	r2, r3
     bd8:	6843      	ldr	r3, [r0, #4]
     bda:	3a0d      	subs	r2, #13
     bdc:	4413      	add	r3, r2
     bde:	791d      	ldrb	r5, [r3, #4]
     be0:	888a      	ldrh	r2, [r1, #4]
     be2:	4295      	cmp	r5, r2
     be4:	d918      	bls.n	0xc18
     be6:	f8d3 5009 	ldr.w	r5, [r3, #9]
     bea:	0112      	lsls	r2, r2, #4
     bec:	18ae      	adds	r6, r5, r2
     bee:	884b      	ldrh	r3, [r1, #2]
     bf0:	7936      	ldrb	r6, [r6, #4]
     bf2:	429e      	cmp	r6, r3
     bf4:	d910      	bls.n	0xc18
     bf6:	58aa      	ldr	r2, [r5, r2]
     bf8:	b152      	cbz	r2, 0xc10
     bfa:	7013      	strb	r3, [r2, #0]
     bfc:	f8d0 30d8 	ldr.w	r3, [r0, #216]	; 0xd8
     c00:	b113      	cbz	r3, 0xc08
     c02:	884a      	ldrh	r2, [r1, #2]
     c04:	8889      	ldrh	r1, [r1, #4]
     c06:	4798      	blx	r3
     c08:	2300      	movs	r3, #0
     c0a:	2001      	movs	r0, #1
     c0c:	8023      	strh	r3, [r4, #0]
     c0e:	bd70      	pop	{r4, r5, r6, pc}
     c10:	2b00      	cmp	r3, #0
     c12:	d0f3      	beq.n	0xbfc
     c14:	4610      	mov	r0, r2
     c16:	e7fa      	b.n	0xc0e
     c18:	2000      	movs	r0, #0
     c1a:	e7f8      	b.n	0xc0e
     c1c:	e92d 4ff0 	stmdb	sp!, {r4, r5, r6, r7, r8, r9, sl, fp, lr}
     c20:	884d      	ldrh	r5, [r1, #2]
     c22:	461f      	mov	r7, r3
     c24:	0a2b      	lsrs	r3, r5, #8
     c26:	2b02      	cmp	r3, #2
     c28:	b089      	sub	sp, #36	; 0x24
     c2a:	4616      	mov	r6, r2
     c2c:	d011      	beq.n	0xc52
     c2e:	2b03      	cmp	r3, #3
     c30:	f000 80e5 	beq.w	0xdfe
     c34:	2b01      	cmp	r3, #1
     c36:	f040 811a 	bne.w	0xe6e
     c3a:	6802      	ldr	r2, [r0, #0]
     c3c:	8839      	ldrh	r1, [r7, #0]
     c3e:	6032      	str	r2, [r6, #0]
     c40:	7812      	ldrb	r2, [r2, #0]
     c42:	428a      	cmp	r2, r1
     c44:	bf28      	it	cs
     c46:	460a      	movcs	r2, r1
     c48:	803a      	strh	r2, [r7, #0]
     c4a:	2001      	movs	r0, #1
     c4c:	b009      	add	sp, #36	; 0x24
     c4e:	e8bd 8ff0 	ldmia.w	sp!, {r4, r5, r6, r7, r8, r9, sl, fp, pc}
     c52:	260d      	movs	r6, #13
     c54:	b2ed      	uxtb	r5, r5
     c56:	436e      	muls	r6, r5
     c58:	6903      	ldr	r3, [r0, #16]
     c5a:	f8d0 8004 	ldr.w	r8, [r0, #4]
     c5e:	6013      	str	r3, [r2, #0]
     c60:	f818 5006 	ldrb.w	r5, [r8, r6]
     c64:	883c      	ldrh	r4, [r7, #0]
     c66:	9301      	str	r3, [sp, #4]
     c68:	42a5      	cmp	r5, r4
     c6a:	bf28      	it	cs
     c6c:	4625      	movcs	r5, r4
     c6e:	eb08 0306 	add.w	r3, r8, r6
     c72:	462a      	mov	r2, r5
     c74:	4619      	mov	r1, r3
     c76:	9801      	ldr	r0, [sp, #4]
     c78:	9302      	str	r3, [sp, #8]
     c7a:	f000 fcd5 	bl	0x1628
     c7e:	2200      	movs	r2, #0
     c80:	9b01      	ldr	r3, [sp, #4]
     c82:	1b64      	subs	r4, r4, r5
     c84:	f818 6006 	ldrb.w	r6, [r8, r6]
     c88:	442b      	add	r3, r5
     c8a:	b2a4      	uxth	r4, r4
     c8c:	9204      	str	r2, [sp, #16]
     c8e:	9a02      	ldr	r2, [sp, #8]
     c90:	7911      	ldrb	r1, [r2, #4]
     c92:	f8bd 2010 	ldrh.w	r2, [sp, #16]
     c96:	4291      	cmp	r1, r2
     c98:	d803      	bhi.n	0xca2
     c9a:	9b01      	ldr	r3, [sp, #4]
     c9c:	805e      	strh	r6, [r3, #2]
     c9e:	803d      	strh	r5, [r7, #0]
     ca0:	e7d3      	b.n	0xc4a
     ca2:	9a04      	ldr	r2, [sp, #16]
     ca4:	0112      	lsls	r2, r2, #4
     ca6:	9207      	str	r2, [sp, #28]
     ca8:	9a02      	ldr	r2, [sp, #8]
     caa:	9907      	ldr	r1, [sp, #28]
     cac:	f8d2 2009 	ldr.w	r2, [r2, #9]
     cb0:	440a      	add	r2, r1
     cb2:	f8d2 9008 	ldr.w	r9, [r2, #8]
     cb6:	f1b9 0f00 	cmp.w	r9, #0
     cba:	d014      	beq.n	0xce6
     cbc:	f899 8000 	ldrb.w	r8, [r9]
     cc0:	4618      	mov	r0, r3
     cc2:	45a0      	cmp	r8, r4
     cc4:	bf28      	it	cs
     cc6:	46a0      	movcs	r8, r4
     cc8:	4649      	mov	r1, r9
     cca:	4642      	mov	r2, r8
     ccc:	f000 fcac 	bl	0x1628
     cd0:	4603      	mov	r3, r0
     cd2:	f899 2000 	ldrb.w	r2, [r9]
     cd6:	eba4 0408 	sub.w	r4, r4, r8
     cda:	4445      	add	r5, r8
     cdc:	4416      	add	r6, r2
     cde:	4443      	add	r3, r8
     ce0:	b2a4      	uxth	r4, r4
     ce2:	b2ad      	uxth	r5, r5
     ce4:	b2b6      	uxth	r6, r6
     ce6:	2200      	movs	r2, #0
     ce8:	9205      	str	r2, [sp, #20]
     cea:	9a02      	ldr	r2, [sp, #8]
     cec:	9907      	ldr	r1, [sp, #28]
     cee:	f8d2 2009 	ldr.w	r2, [r2, #9]
     cf2:	440a      	add	r2, r1
     cf4:	7910      	ldrb	r0, [r2, #4]
     cf6:	f8bd 1014 	ldrh.w	r1, [sp, #20]
     cfa:	4288      	cmp	r0, r1
     cfc:	d802      	bhi.n	0xd04
     cfe:	9a04      	ldr	r2, [sp, #16]
     d00:	3201      	adds	r2, #1
     d02:	e7c3      	b.n	0xc8c
     d04:	2015      	movs	r0, #21
     d06:	9905      	ldr	r1, [sp, #20]
     d08:	f8d2 a00c 	ldr.w	sl, [r2, #12]
     d0c:	fb00 f901 	mul.w	r9, r0, r1
     d10:	f81a 8009 	ldrb.w	r8, [sl, r9]
     d14:	eb0a 0b09 	add.w	fp, sl, r9
     d18:	45a0      	cmp	r8, r4
     d1a:	bf28      	it	cs
     d1c:	46a0      	movcs	r8, r4
     d1e:	4659      	mov	r1, fp
     d20:	4642      	mov	r2, r8
     d22:	4618      	mov	r0, r3
     d24:	f000 fc80 	bl	0x1628
     d28:	4603      	mov	r3, r0
     d2a:	f81a 2009 	ldrb.w	r2, [sl, r9]
     d2e:	f8db 100d 	ldr.w	r1, [fp, #13]
     d32:	eba4 0408 	sub.w	r4, r4, r8
     d36:	4445      	add	r5, r8
     d38:	4416      	add	r6, r2
     d3a:	4443      	add	r3, r8
     d3c:	b2a4      	uxth	r4, r4
     d3e:	b2ad      	uxth	r5, r5
     d40:	b2b6      	uxth	r6, r6
     d42:	b1a9      	cbz	r1, 0xd70
     d44:	f8db 8011 	ldr.w	r8, [fp, #17]
     d48:	4618      	mov	r0, r3
     d4a:	45a0      	cmp	r8, r4
     d4c:	bfa8      	it	ge
     d4e:	46a0      	movge	r8, r4
     d50:	fa1f f988 	uxth.w	r9, r8
     d54:	464a      	mov	r2, r9
     d56:	f000 fc67 	bl	0x1628
     d5a:	4603      	mov	r3, r0
     d5c:	f8db 2011 	ldr.w	r2, [fp, #17]
     d60:	eba4 0409 	sub.w	r4, r4, r9
     d64:	444d      	add	r5, r9
     d66:	4416      	add	r6, r2
     d68:	444b      	add	r3, r9
     d6a:	b2a4      	uxth	r4, r4
     d6c:	b2ad      	uxth	r5, r5
     d6e:	b2b6      	uxth	r6, r6
     d70:	f04f 0900 	mov.w	r9, #0
     d74:	f89b 1004 	ldrb.w	r1, [fp, #4]
     d78:	fa1f f289 	uxth.w	r2, r9
     d7c:	4291      	cmp	r1, r2
     d7e:	d802      	bhi.n	0xd86
     d80:	9a05      	ldr	r2, [sp, #20]
     d82:	3201      	adds	r2, #1
     d84:	e7b0      	b.n	0xce8
     d86:	f8db 2009 	ldr.w	r2, [fp, #9]
     d8a:	ebc9 1a09 	rsb	sl, r9, r9, lsl #4
     d8e:	9206      	str	r2, [sp, #24]
     d90:	4452      	add	r2, sl
     d92:	9203      	str	r2, [sp, #12]
     d94:	9a06      	ldr	r2, [sp, #24]
     d96:	9903      	ldr	r1, [sp, #12]
     d98:	f812 800a 	ldrb.w	r8, [r2, sl]
     d9c:	4618      	mov	r0, r3
     d9e:	45a0      	cmp	r8, r4
     da0:	bf28      	it	cs
     da2:	46a0      	movcs	r8, r4
     da4:	4642      	mov	r2, r8
     da6:	f000 fc3f 	bl	0x1628
     daa:	4603      	mov	r3, r0
     dac:	9a06      	ldr	r2, [sp, #24]
     dae:	eba4 0408 	sub.w	r4, r4, r8
     db2:	f812 200a 	ldrb.w	r2, [r2, sl]
     db6:	4445      	add	r5, r8
     db8:	4416      	add	r6, r2
     dba:	9a03      	ldr	r2, [sp, #12]
     dbc:	4443      	add	r3, r8
     dbe:	f8d2 1007 	ldr.w	r1, [r2, #7]
     dc2:	b2a4      	uxth	r4, r4
     dc4:	b2ad      	uxth	r5, r5
     dc6:	b2b6      	uxth	r6, r6
     dc8:	b1b1      	cbz	r1, 0xdf8
     dca:	f8d2 800b 	ldr.w	r8, [r2, #11]
     dce:	4618      	mov	r0, r3
     dd0:	45a0      	cmp	r8, r4
     dd2:	bfa8      	it	ge
     dd4:	46a0      	movge	r8, r4
     dd6:	fa1f fa88 	uxth.w	sl, r8
     dda:	4652      	mov	r2, sl
     ddc:	f000 fc24 	bl	0x1628
     de0:	4603      	mov	r3, r0
     de2:	9a03      	ldr	r2, [sp, #12]
     de4:	eba4 040a 	sub.w	r4, r4, sl
     de8:	f8d2 200b 	ldr.w	r2, [r2, #11]
     dec:	4455      	add	r5, sl
     dee:	4416      	add	r6, r2
     df0:	4453      	add	r3, sl
     df2:	b2a4      	uxth	r4, r4
     df4:	b2ad      	uxth	r5, r5
     df6:	b2b6      	uxth	r6, r6
     df8:	f109 0901 	add.w	r9, r9, #1
     dfc:	e7ba      	b.n	0xd74
     dfe:	f015 05ff 	ands.w	r5, r5, #255	; 0xff
     e02:	6904      	ldr	r4, [r0, #16]
     e04:	d10d      	bne.n	0xe22
     e06:	2309      	movs	r3, #9
     e08:	70a3      	strb	r3, [r4, #2]
     e0a:	2304      	movs	r3, #4
     e0c:	70e3      	strb	r3, [r4, #3]
     e0e:	7023      	strb	r3, [r4, #0]
     e10:	883b      	ldrh	r3, [r7, #0]
     e12:	2b04      	cmp	r3, #4
     e14:	bf28      	it	cs
     e16:	2304      	movcs	r3, #4
     e18:	803b      	strh	r3, [r7, #0]
     e1a:	2303      	movs	r3, #3
     e1c:	7063      	strb	r3, [r4, #1]
     e1e:	6034      	str	r4, [r6, #0]
     e20:	e713      	b.n	0xc4a
     e22:	6883      	ldr	r3, [r0, #8]
     e24:	b31b      	cbz	r3, 0xe6e
     e26:	68c2      	ldr	r2, [r0, #12]
     e28:	3d01      	subs	r5, #1
     e2a:	42aa      	cmp	r2, r5
     e2c:	dd1f      	ble.n	0xe6e
     e2e:	f240 4209 	movw	r2, #1033	; 0x409
     e32:	8889      	ldrh	r1, [r1, #4]
     e34:	4291      	cmp	r1, r2
     e36:	d11a      	bne.n	0xe6e
     e38:	f853 5025 	ldr.w	r5, [r3, r5, lsl #2]
     e3c:	4628      	mov	r0, r5
     e3e:	f000 fbfe 	bl	0x163e
     e42:	3001      	adds	r0, #1
     e44:	0040      	lsls	r0, r0, #1
     e46:	b2c0      	uxtb	r0, r0
     e48:	7020      	strb	r0, [r4, #0]
     e4a:	883b      	ldrh	r3, [r7, #0]
     e4c:	4629      	mov	r1, r5
     e4e:	4298      	cmp	r0, r3
     e50:	bf28      	it	cs
     e52:	4618      	movcs	r0, r3
     e54:	8038      	strh	r0, [r7, #0]
     e56:	883b      	ldrh	r3, [r7, #0]
     e58:	1b4a      	subs	r2, r1, r5
     e5a:	085b      	lsrs	r3, r3, #1
     e5c:	3b01      	subs	r3, #1
     e5e:	4293      	cmp	r3, r2
     e60:	dddb      	ble.n	0xe1a
     e62:	f811 3b01 	ldrb.w	r3, [r1], #1
     e66:	eb04 0242 	add.w	r2, r4, r2, lsl #1
     e6a:	8053      	strh	r3, [r2, #2]
     e6c:	e7f3      	b.n	0xe56
     e6e:	2000      	movs	r0, #0
     e70:	e6ec      	b.n	0xc4c
     e72:	8819      	ldrh	r1, [r3, #0]
     e74:	2001      	movs	r0, #1
     e76:	2902      	cmp	r1, #2
     e78:	bf84      	itt	hi
     e7a:	2102      	movhi	r1, #2
     e7c:	8019      	strhhi	r1, [r3, #0]
     e7e:	2300      	movs	r3, #0
     e80:	6811      	ldr	r1, [r2, #0]
     e82:	700b      	strb	r3, [r1, #0]
     e84:	6812      	ldr	r2, [r2, #0]
     e86:	7053      	strb	r3, [r2, #1]
     e88:	4770      	bx	lr
     e8a:	2200      	movs	r2, #0
     e8c:	b510      	push	{r4, lr}
     e8e:	f100 04c8 	add.w	r4, r0, #200	; 0xc8
     e92:	f854 3b04 	ldr.w	r3, [r4], #4
     e96:	b13b      	cbz	r3, 0xea8
     e98:	428b      	cmp	r3, r1
     e9a:	d008      	beq.n	0xeae
     e9c:	3201      	adds	r2, #1
     e9e:	2a04      	cmp	r2, #4
     ea0:	d1f7      	bne.n	0xe92
     ea2:	f04f 30ff 	mov.w	r0, #4294967295	; 0xffffffff
     ea6:	bd10      	pop	{r4, pc}
     ea8:	3232      	adds	r2, #50	; 0x32
     eaa:	f840 1022 	str.w	r1, [r0, r2, lsl #2]
     eae:	2000      	movs	r0, #0
     eb0:	e7f9      	b.n	0xea6
     eb2:	0000      	movs	r0, r0
     eb4:	b410      	push	{r4}
     eb6:	784c      	ldrb	r4, [r1, #1]
     eb8:	2c09      	cmp	r4, #9
     eba:	d812      	bhi.n	0xee2
     ebc:	e8df f004 	tbb	[pc, r4]
     ec0:	110d      	asrs	r5, r1, #4
     ec2:	1111      	asrs	r1, r2, #4
     ec4:	0f11      	lsrs	r1, r2, #28
     ec6:	110b      	asrs	r3, r1, #4
     ec8:	0509      	lsls	r1, r1, #20
     eca:	4c07      	ldr	r4, [pc, #28]	; (0xee8)
     ecc:	46a4      	mov	ip, r4
     ece:	bc10      	pop	{r4}
     ed0:	4760      	bx	ip
     ed2:	4c06      	ldr	r4, [pc, #24]	; (0xeec)
     ed4:	e7fa      	b.n	0xecc
     ed6:	4c06      	ldr	r4, [pc, #24]	; (0xef0)
     ed8:	e7f8      	b.n	0xecc
     eda:	4c06      	ldr	r4, [pc, #24]	; (0xef4)
     edc:	e7f6      	b.n	0xecc
     ede:	4c06      	ldr	r4, [pc, #24]	; (0xef8)
     ee0:	e7f4      	b.n	0xecc
     ee2:	2000      	movs	r0, #0
     ee4:	bc10      	pop	{r4}
     ee6:	4770      	bx	lr
     ee8:	0a5d      	lsrs	r5, r3, #9
     eea:	0800      	lsrs	r0, r0, #32
     eec:	0aef      	lsrs	r7, r5, #11
     eee:	0800      	lsrs	r0, r0, #32
     ef0:	0c1d      	lsrs	r5, r3, #16
     ef2:	0800      	lsrs	r0, r0, #32
     ef4:	0b45      	lsrs	r5, r0, #13
     ef6:	0800      	lsrs	r0, r0, #32
     ef8:	0ba7      	lsrs	r7, r4, #14
     efa:	0800      	lsrs	r0, r0, #32
     efc:	b410      	push	{r4}
     efe:	784c      	ldrb	r4, [r1, #1]
     f00:	2c0a      	cmp	r4, #10
     f02:	d008      	beq.n	0xf16
     f04:	2c0b      	cmp	r4, #11
     f06:	d002      	beq.n	0xf0e
     f08:	b93c      	cbnz	r4, 0xf1a
     f0a:	4c05      	ldr	r4, [pc, #20]	; (0xf20)
     f0c:	e000      	b.n	0xf10
     f0e:	4c05      	ldr	r4, [pc, #20]	; (0xf24)
     f10:	46a4      	mov	ip, r4
     f12:	bc10      	pop	{r4}
     f14:	4760      	bx	ip
     f16:	4c04      	ldr	r4, [pc, #16]	; (0xf28)
     f18:	e7fa      	b.n	0xf10
     f1a:	2000      	movs	r0, #0
     f1c:	bc10      	pop	{r4}
     f1e:	4770      	bx	lr
     f20:	0e73      	lsrs	r3, r6, #25
     f22:	0800      	lsrs	r0, r0, #32
     f24:	0bcf      	lsrs	r7, r1, #15
     f26:	0800      	lsrs	r0, r0, #32
     f28:	0b11      	lsrs	r1, r2, #12
     f2a:	0800      	lsrs	r0, r0, #32
     f2c:	b410      	push	{r4}
     f2e:	784c      	ldrb	r4, [r1, #1]
     f30:	2c01      	cmp	r4, #1
     f32:	d005      	beq.n	0xf40
     f34:	d310      	bcc.n	0xf58
     f36:	2c03      	cmp	r4, #3
     f38:	d007      	beq.n	0xf4a
     f3a:	2000      	movs	r0, #0
     f3c:	bc10      	pop	{r4}
     f3e:	4770      	bx	lr
     f40:	884c      	ldrh	r4, [r1, #2]
     f42:	2c00      	cmp	r4, #0
     f44:	d1f9      	bne.n	0xf3a
     f46:	4c05      	ldr	r4, [pc, #20]	; (0xf5c)
     f48:	e003      	b.n	0xf52
     f4a:	884c      	ldrh	r4, [r1, #2]
     f4c:	2c00      	cmp	r4, #0
     f4e:	d1f4      	bne.n	0xf3a
     f50:	4c03      	ldr	r4, [pc, #12]	; (0xf60)
     f52:	46a4      	mov	ip, r4
     f54:	bc10      	pop	{r4}
     f56:	4760      	bx	ip
     f58:	4c02      	ldr	r4, [pc, #8]	; (0xf64)
     f5a:	e7fa      	b.n	0xf52
     f5c:	0b97      	lsrs	r7, r2, #14
     f5e:	0800      	lsrs	r0, r0, #32
     f60:	0b87      	lsrs	r7, r0, #14
     f62:	0800      	lsrs	r0, r0, #32
     f64:	0b5d      	lsrs	r5, r3, #13
     f66:	0800      	lsrs	r0, r0, #32
     f68:	b410      	push	{r4}
     f6a:	780c      	ldrb	r4, [r1, #0]
     f6c:	f014 0f60 	tst.w	r4, #96	; 0x60
     f70:	d106      	bne.n	0xf80
     f72:	f004 041f 	and.w	r4, r4, #31
     f76:	2c01      	cmp	r4, #1
     f78:	d008      	beq.n	0xf8c
     f7a:	d304      	bcc.n	0xf86
     f7c:	2c02      	cmp	r4, #2
     f7e:	d008      	beq.n	0xf92
     f80:	2000      	movs	r0, #0
     f82:	bc10      	pop	{r4}
     f84:	4770      	bx	lr
     f86:	bc10      	pop	{r4}
     f88:	f7ff bf94 	b.w	0xeb4
     f8c:	bc10      	pop	{r4}
     f8e:	f7ff bfb5 	b.w	0xefc
     f92:	bc10      	pop	{r4}
     f94:	f7ff bfca 	b.w	0xf2c
     f98:	b508      	push	{r3, lr}
     f9a:	f240 3097 	movw	r0, #919	; 0x397
     f9e:	f7ff fb7f 	bl	0x6a0
     fa2:	2300      	movs	r3, #0
     fa4:	4a05      	ldr	r2, [pc, #20]	; (0xfbc)
     fa6:	4906      	ldr	r1, [pc, #24]	; (0xfc0)
     fa8:	6013      	str	r3, [r2, #0]
     faa:	600b      	str	r3, [r1, #0]
     fac:	f841 3c0c 	str.w	r3, [r1, #-12]
     fb0:	f44f 431c 	mov.w	r3, #39936	; 0x9c00
     fb4:	4803      	ldr	r0, [pc, #12]	; (0xfc4)
     fb6:	6013      	str	r3, [r2, #0]
     fb8:	bd08      	pop	{r3, pc}
     fba:	bf00      	nop
     fbc:	5c40      	ldrb	r0, [r0, r1]
     fbe:	4000      	ands	r0, r0
     fc0:	5c50      	ldrb	r0, [r2, r1]
     fc2:	4000      	ands	r0, r0
     fc4:	0228      	lsls	r0, r5, #8
     fc6:	2000      	movs	r0, #0
     fc8:	3201      	adds	r2, #1
     fca:	3902      	subs	r1, #2
     fcc:	1052      	asrs	r2, r2, #1
     fce:	eb01 0242 	add.w	r2, r1, r2, lsl #1
     fd2:	4291      	cmp	r1, r2
     fd4:	d100      	bne.n	0xfd8
     fd6:	4770      	bx	lr
     fd8:	f831 3f02 	ldrh.w	r3, [r1, #2]!
     fdc:	3004      	adds	r0, #4
     fde:	f840 3c04 	str.w	r3, [r0, #-4]
     fe2:	e7f6      	b.n	0xfd2
     fe4:	b5f0      	push	{r4, r5, r6, r7, lr}
     fe6:	f002 0601 	and.w	r6, r2, #1
     fea:	0852      	lsrs	r2, r2, #1
     fec:	460d      	mov	r5, r1
     fee:	4604      	mov	r4, r0
     ff0:	4613      	mov	r3, r2
     ff2:	b92b      	cbnz	r3, 0x1000
     ff4:	b11e      	cbz	r6, 0xffe
     ff6:	f811 3022 	ldrb.w	r3, [r1, r2, lsl #2]
     ffa:	f800 3012 	strb.w	r3, [r0, r2, lsl #1]
     ffe:	bdf0      	pop	{r4, r5, r6, r7, pc}
    1000:	f835 7b04 	ldrh.w	r7, [r5], #4
    1004:	3b01      	subs	r3, #1
    1006:	f824 7b02 	strh.w	r7, [r4], #2
    100a:	b29b      	uxth	r3, r3
    100c:	e7f1      	b.n	0xff2
    100e:	e7fe      	b.n	0x100e
    1010:	4770      	bx	lr
    1012:	0000      	movs	r0, r0
    1014:	2200      	movs	r2, #0
    1016:	b538      	push	{r3, r4, r5, lr}
    1018:	4918      	ldr	r1, [pc, #96]	; (0x107c)
    101a:	4c19      	ldr	r4, [pc, #100]	; (0x1080)
    101c:	4819      	ldr	r0, [pc, #100]	; (0x1084)
    101e:	1853      	adds	r3, r2, r1
    1020:	4283      	cmp	r3, r0
    1022:	d317      	bcc.n	0x1054
    1024:	2100      	movs	r1, #0
    1026:	4a18      	ldr	r2, [pc, #96]	; (0x1088)
    1028:	4293      	cmp	r3, r2
    102a:	d317      	bcc.n	0x105c
    102c:	4a17      	ldr	r2, [pc, #92]	; (0x108c)
    102e:	4c18      	ldr	r4, [pc, #96]	; (0x1090)
    1030:	6813      	ldr	r3, [r2, #0]
    1032:	4d18      	ldr	r5, [pc, #96]	; (0x1094)
    1034:	f443 7300 	orr.w	r3, r3, #512	; 0x200
    1038:	6013      	str	r3, [r2, #0]
    103a:	42ac      	cmp	r4, r5
    103c:	d311      	bcc.n	0x1062
    103e:	4c16      	ldr	r4, [pc, #88]	; (0x1098)
    1040:	4d16      	ldr	r5, [pc, #88]	; (0x109c)
    1042:	42ac      	cmp	r4, r5
    1044:	d311      	bcc.n	0x106a
    1046:	f7ff f8ab 	bl	0x1a0
    104a:	4c15      	ldr	r4, [pc, #84]	; (0x10a0)
    104c:	4d15      	ldr	r5, [pc, #84]	; (0x10a4)
    104e:	42ac      	cmp	r4, r5
    1050:	d30f      	bcc.n	0x1072
    1052:	bd38      	pop	{r3, r4, r5, pc}
    1054:	5913      	ldr	r3, [r2, r4]
    1056:	5053      	str	r3, [r2, r1]
    1058:	3204      	adds	r2, #4
    105a:	e7e0      	b.n	0x101e
    105c:	6019      	str	r1, [r3, #0]
    105e:	3304      	adds	r3, #4
    1060:	e7e2      	b.n	0x1028
    1062:	f854 3b04 	ldr.w	r3, [r4], #4
    1066:	4798      	blx	r3
    1068:	e7e7      	b.n	0x103a
    106a:	f854 3b04 	ldr.w	r3, [r4], #4
    106e:	4798      	blx	r3
    1070:	e7e7      	b.n	0x1042
    1072:	f854 3b04 	ldr.w	r3, [r4], #4
    1076:	4798      	blx	r3
    1078:	e7e9      	b.n	0x104e
    107a:	bf00      	nop
    107c:	0000      	movs	r0, r0
    107e:	2000      	movs	r0, #0
    1080:	172c      	asrs	r4, r5, #28
    1082:	0800      	lsrs	r0, r0, #32
    1084:	000c      	movs	r4, r1
    1086:	2000      	movs	r0, #0
    1088:	032c      	lsls	r4, r5, #12
    108a:	2000      	movs	r0, #0
    108c:	ed14 e000 	ldc	0, cr14, [r4, #-0]
    1090:	172c      	asrs	r4, r5, #28
    1092:	0800      	lsrs	r0, r0, #32
    1094:	172c      	asrs	r4, r5, #28
    1096:	0800      	lsrs	r0, r0, #32
    1098:	172c      	asrs	r4, r5, #28
    109a:	0800      	lsrs	r0, r0, #32
    109c:	172c      	asrs	r4, r5, #28
    109e:	0800      	lsrs	r0, r0, #32
    10a0:	172c      	asrs	r4, r5, #28
    10a2:	0800      	lsrs	r0, r0, #32
    10a4:	172c      	asrs	r4, r5, #28
    10a6:	0800      	lsrs	r0, r0, #32
    10a8:	4b02      	ldr	r3, [pc, #8]	; (0x10b4)
    10aa:	f020 407f 	bic.w	r0, r0, #4278190080	; 0xff000000
    10ae:	6018      	str	r0, [r3, #0]
    10b0:	4770      	bx	lr
    10b2:	bf00      	nop
    10b4:	e014      	b.n	0x10e0
    10b6:	e000      	b.n	0x10ba
    10b8:	4a04      	ldr	r2, [pc, #16]	; (0x10cc)
    10ba:	f000 0004 	and.w	r0, r0, #4
    10be:	6813      	ldr	r3, [r2, #0]
    10c0:	f023 0304 	bic.w	r3, r3, #4
    10c4:	4303      	orrs	r3, r0
    10c6:	6013      	str	r3, [r2, #0]
    10c8:	4770      	bx	lr
    10ca:	bf00      	nop
    10cc:	e010      	b.n	0x10f0
    10ce:	e000      	b.n	0x10d2
    10d0:	4a02      	ldr	r2, [pc, #8]	; (0x10dc)
    10d2:	6813      	ldr	r3, [r2, #0]
    10d4:	f043 0302 	orr.w	r3, r3, #2
    10d8:	6013      	str	r3, [r2, #0]
    10da:	4770      	bx	lr
    10dc:	e010      	b.n	0x1100
    10de:	e000      	b.n	0x10e2
    10e0:	4a02      	ldr	r2, [pc, #8]	; (0x10ec)
    10e2:	6813      	ldr	r3, [r2, #0]
    10e4:	f043 0301 	orr.w	r3, r3, #1
    10e8:	6013      	str	r3, [r2, #0]
    10ea:	4770      	bx	lr
    10ec:	e010      	b.n	0x1110
    10ee:	e000      	b.n	0x10f2
    10f0:	2201      	movs	r2, #1
    10f2:	0943      	lsrs	r3, r0, #5
    10f4:	009b      	lsls	r3, r3, #2
    10f6:	f103 4360 	add.w	r3, r3, #3758096384	; 0xe0000000
    10fa:	f000 001f 	and.w	r0, r0, #31
    10fe:	f503 4361 	add.w	r3, r3, #57600	; 0xe100
    1102:	fa02 f000 	lsl.w	r0, r2, r0
    1106:	6018      	str	r0, [r3, #0]
    1108:	4770      	bx	lr
    110a:	0000      	movs	r0, r0
    110c:	2843      	cmp	r0, #67	; 0x43
    110e:	bf93      	iteet	ls
    1110:	f100 4060 	addls.w	r0, r0, #3758096384	; 0xe0000000
    1114:	4b04      	ldrhi	r3, [pc, #16]	; (0x1128)
    1116:	f000 000f 	andhi.w	r0, r0, #15
    111a:	f500 4064 	addls.w	r0, r0, #58368	; 0xe400
    111e:	bf8c      	ite	hi
    1120:	54c1      	strbhi	r1, [r0, r3]
    1122:	7001      	strbls	r1, [r0, #0]
    1124:	4770      	bx	lr
    1126:	bf00      	nop
    1128:	ed14 e000 	ldc	0, cr14, [r4, #-0]
    112c:	4a03      	ldr	r2, [pc, #12]	; (0x113c)
    112e:	6813      	ldr	r3, [r2, #0]
    1130:	f023 0307 	bic.w	r3, r3, #7
    1134:	4318      	orrs	r0, r3
    1136:	6010      	str	r0, [r2, #0]
    1138:	4770      	bx	lr
    113a:	bf00      	nop
    113c:	2000      	movs	r0, #0
    113e:	4002      	ands	r2, r0
    1140:	4b02      	ldr	r3, [pc, #8]	; (0x114c)
    1142:	f041 0180 	orr.w	r1, r1, #128	; 0x80
    1146:	6019      	str	r1, [r3, #0]
    1148:	4770      	bx	lr
    114a:	bf00      	nop
    114c:	5c4c      	ldrb	r4, [r1, r1]
    114e:	4000      	ands	r0, r0
    1150:	2a3e      	cmp	r2, #62	; 0x3e
    1152:	d911      	bls.n	0x1178
    1154:	3a01      	subs	r2, #1
    1156:	f3c2 1244 	ubfx	r2, r2, #5, #5
    115a:	1c50      	adds	r0, r2, #1
    115c:	0140      	lsls	r0, r0, #5
    115e:	f042 0220 	orr.w	r2, r2, #32
    1162:	4b08      	ldr	r3, [pc, #32]	; (0x1184)
    1164:	0292      	lsls	r2, r2, #10
    1166:	681b      	ldr	r3, [r3, #0]
    1168:	b292      	uxth	r2, r2
    116a:	b29b      	uxth	r3, r3
    116c:	eb03 01c1 	add.w	r1, r3, r1, lsl #3
    1170:	4b05      	ldr	r3, [pc, #20]	; (0x1188)
    1172:	0049      	lsls	r1, r1, #1
    1174:	505a      	str	r2, [r3, r1]
    1176:	4770      	bx	lr
    1178:	3201      	adds	r2, #1
    117a:	0852      	lsrs	r2, r2, #1
    117c:	0050      	lsls	r0, r2, #1
    117e:	b280      	uxth	r0, r0
    1180:	e7ef      	b.n	0x1162
    1182:	bf00      	nop
    1184:	5c50      	ldrb	r0, [r2, r1]
    1186:	4000      	ands	r0, r0
    1188:	600c      	str	r4, [r1, #0]
    118a:	4000      	ands	r0, r0
    118c:	b5f7      	push	{r0, r1, r2, r4, r5, r6, r7, lr}
    118e:	4605      	mov	r5, r0
    1190:	f04f 60c0 	mov.w	r0, #100663296	; 0x6000000
    1194:	4c41      	ldr	r4, [pc, #260]	; (0x129c)
    1196:	f001 067f 	and.w	r6, r1, #127	; 0x7f
    119a:	e9cd 4000 	strd	r4, r0, [sp]
    119e:	00b4      	lsls	r4, r6, #2
    11a0:	f104 4480 	add.w	r4, r4, #1073741824	; 0x40000000
    11a4:	f504 44b8 	add.w	r4, r4, #23552	; 0x5c00
    11a8:	6820      	ldr	r0, [r4, #0]
    11aa:	f10d 0c08 	add.w	ip, sp, #8
    11ae:	f420 40e0 	bic.w	r0, r0, #28672	; 0x7000
    11b2:	f020 007f 	bic.w	r0, r0, #127	; 0x7f
    11b6:	4330      	orrs	r0, r6
    11b8:	b280      	uxth	r0, r0
    11ba:	6020      	str	r0, [r4, #0]
    11bc:	6820      	ldr	r0, [r4, #0]
    11be:	eb0c 0242 	add.w	r2, ip, r2, lsl #1
    11c2:	f420 40ec 	bic.w	r0, r0, #30208	; 0x7600
    11c6:	f832 2c08 	ldrh.w	r2, [r2, #-8]
    11ca:	f020 0070 	bic.w	r0, r0, #112	; 0x70
    11ce:	4310      	orrs	r0, r2
    11d0:	b249      	sxtb	r1, r1
    11d2:	b280      	uxth	r0, r0
    11d4:	2900      	cmp	r1, #0
    11d6:	9f08      	ldr	r7, [sp, #32]
    11d8:	6020      	str	r0, [r4, #0]
    11da:	f8df c0c8 	ldr.w	ip, [pc, #200]	; 0x12a4
    11de:	ea4f 0ec6 	mov.w	lr, r6, lsl #3
    11e2:	db2a      	blt.n	0x123a
    11e4:	b34e      	cbz	r6, 0x123a
    11e6:	f8dc 2000 	ldr.w	r2, [ip]
    11ea:	8b29      	ldrh	r1, [r5, #24]
    11ec:	b292      	uxth	r2, r2
    11ee:	4496      	add	lr, r2
    11f0:	4a2b      	ldr	r2, [pc, #172]	; (0x12a0)
    11f2:	ea4f 0e4e 	mov.w	lr, lr, lsl #1
    11f6:	f842 100e 	str.w	r1, [r2, lr]
    11fa:	4628      	mov	r0, r5
    11fc:	461a      	mov	r2, r3
    11fe:	4631      	mov	r1, r6
    1200:	f7ff ffa6 	bl	0x1150
    1204:	2f00      	cmp	r7, #0
    1206:	d143      	bne.n	0x1290
    1208:	6823      	ldr	r3, [r4, #0]
    120a:	f423 5341 	bic.w	r3, r3, #12352	; 0x3040
    120e:	f023 0330 	bic.w	r3, r3, #48	; 0x30
    1212:	041b      	lsls	r3, r3, #16
    1214:	0c1b      	lsrs	r3, r3, #16
    1216:	6023      	str	r3, [r4, #0]
    1218:	6823      	ldr	r3, [r4, #0]
    121a:	f423 4380 	bic.w	r3, r3, #16384	; 0x4000
    121e:	f023 0370 	bic.w	r3, r3, #112	; 0x70
    1222:	b29b      	uxth	r3, r3
    1224:	f483 5340 	eor.w	r3, r3, #12288	; 0x3000
    1228:	f443 4300 	orr.w	r3, r3, #32768	; 0x8000
    122c:	f043 0380 	orr.w	r3, r3, #128	; 0x80
    1230:	6023      	str	r3, [r4, #0]
    1232:	8b2b      	ldrh	r3, [r5, #24]
    1234:	4418      	add	r0, r3
    1236:	8328      	strh	r0, [r5, #24]
    1238:	e028      	b.n	0x128c
    123a:	f8dc 2000 	ldr.w	r2, [ip]
    123e:	8b28      	ldrh	r0, [r5, #24]
    1240:	b292      	uxth	r2, r2
    1242:	4472      	add	r2, lr
    1244:	0052      	lsls	r2, r2, #1
    1246:	f102 4280 	add.w	r2, r2, #1073741824	; 0x40000000
    124a:	f502 42c0 	add.w	r2, r2, #24576	; 0x6000
    124e:	6010      	str	r0, [r2, #0]
    1250:	b11f      	cbz	r7, 0x125a
    1252:	220c      	movs	r2, #12
    1254:	fb02 5206 	mla	r2, r2, r6, r5
    1258:	6697      	str	r7, [r2, #104]	; 0x68
    125a:	6822      	ldr	r2, [r4, #0]
    125c:	4418      	add	r0, r3
    125e:	f422 42e0 	bic.w	r2, r2, #28672	; 0x7000
    1262:	f022 0230 	bic.w	r2, r2, #48	; 0x30
    1266:	0412      	lsls	r2, r2, #16
    1268:	0c12      	lsrs	r2, r2, #16
    126a:	6022      	str	r2, [r4, #0]
    126c:	6822      	ldr	r2, [r4, #0]
    126e:	2900      	cmp	r1, #0
    1270:	f422 42e0 	bic.w	r2, r2, #28672	; 0x7000
    1274:	f022 0240 	bic.w	r2, r2, #64	; 0x40
    1278:	b292      	uxth	r2, r2
    127a:	f082 0220 	eor.w	r2, r2, #32
    127e:	f442 4200 	orr.w	r2, r2, #32768	; 0x8000
    1282:	f042 0280 	orr.w	r2, r2, #128	; 0x80
    1286:	6022      	str	r2, [r4, #0]
    1288:	8328      	strh	r0, [r5, #24]
    128a:	daac      	bge.n	0x11e6
    128c:	b003      	add	sp, #12
    128e:	bdf0      	pop	{r4, r5, r6, r7, pc}
    1290:	230c      	movs	r3, #12
    1292:	fb03 5606 	mla	r6, r3, r6, r5
    1296:	66f7      	str	r7, [r6, #108]	; 0x6c
    1298:	e7b6      	b.n	0x1208
    129a:	bf00      	nop
    129c:	0200      	lsls	r0, r0, #8
    129e:	0400      	lsls	r0, r0, #16
    12a0:	6008      	str	r0, [r1, #0]
    12a2:	4000      	ands	r0, r0
    12a4:	5c50      	ldrb	r0, [r2, r1]
    12a6:	4000      	ands	r0, r0
    12a8:	f248 0180 	movw	r1, #32896	; 0x8080
    12ac:	b570      	push	{r4, r5, r6, lr}
    12ae:	4a0b      	ldr	r2, [pc, #44]	; (0x12dc)
    12b0:	4e0b      	ldr	r6, [pc, #44]	; (0x12e0)
    12b2:	4d0c      	ldr	r5, [pc, #48]	; (0x12e4)
    12b4:	4c0c      	ldr	r4, [pc, #48]	; (0x12e8)
    12b6:	6813      	ldr	r3, [r2, #0]
    12b8:	4033      	ands	r3, r6
    12ba:	430b      	orrs	r3, r1
    12bc:	b29b      	uxth	r3, r3
    12be:	6013      	str	r3, [r2, #0]
    12c0:	6813      	ldr	r3, [r2, #0]
    12c2:	402b      	ands	r3, r5
    12c4:	430b      	orrs	r3, r1
    12c6:	b29b      	uxth	r3, r3
    12c8:	f842 3b04 	str.w	r3, [r2], #4
    12cc:	42a2      	cmp	r2, r4
    12ce:	d1f2      	bne.n	0x12b6
    12d0:	6803      	ldr	r3, [r0, #0]
    12d2:	79db      	ldrb	r3, [r3, #7]
    12d4:	3320      	adds	r3, #32
    12d6:	005b      	lsls	r3, r3, #1
    12d8:	8303      	strh	r3, [r0, #24]
    12da:	bd70      	pop	{r4, r5, r6, pc}
    12dc:	5c04      	ldrb	r4, [r0, r0]
    12de:	4000      	ands	r0, r0
    12e0:	8fbf      	ldrh	r7, [r7, #60]	; 0x3c
    12e2:	ffff bf8f 			; <UNDEFINED> instruction: 0xffffbf8f
    12e6:	ffff 5c20 	vdup.8	d21, d16[7]
    12ea:	4000      	ands	r0, r0
    12ec:	b510      	push	{r4, lr}
    12ee:	b989      	cbnz	r1, 0x1314
    12f0:	2a00      	cmp	r2, #0
    12f2:	bf0c      	ite	eq
    12f4:	2420      	moveq	r4, #32
    12f6:	2410      	movne	r4, #16
    12f8:	482a      	ldr	r0, [pc, #168]	; (0x13a4)
    12fa:	6803      	ldr	r3, [r0, #0]
    12fc:	f423 43e0 	bic.w	r3, r3, #28672	; 0x7000
    1300:	f023 0340 	bic.w	r3, r3, #64	; 0x40
    1304:	4063      	eors	r3, r4
    1306:	b21b      	sxth	r3, r3
    1308:	f443 4300 	orr.w	r3, r3, #32768	; 0x8000
    130c:	f043 0380 	orr.w	r3, r3, #128	; 0x80
    1310:	b29b      	uxth	r3, r3
    1312:	6003      	str	r3, [r0, #0]
    1314:	060b      	lsls	r3, r1, #24
    1316:	d523      	bpl.n	0x1360
    1318:	2a00      	cmp	r2, #0
    131a:	bf0c      	ite	eq
    131c:	2220      	moveq	r2, #32
    131e:	2210      	movne	r2, #16
    1320:	f001 017f 	and.w	r1, r1, #127	; 0x7f
    1324:	ea4f 0181 	mov.w	r1, r1, lsl #2
    1328:	f101 4180 	add.w	r1, r1, #1073741824	; 0x40000000
    132c:	f501 41b8 	add.w	r1, r1, #23552	; 0x5c00
    1330:	680b      	ldr	r3, [r1, #0]
    1332:	f423 43e0 	bic.w	r3, r3, #28672	; 0x7000
    1336:	f023 0340 	bic.w	r3, r3, #64	; 0x40
    133a:	ea83 0302 	eor.w	r3, r3, r2
    133e:	b21b      	sxth	r3, r3
    1340:	f443 4300 	orr.w	r3, r3, #32768	; 0x8000
    1344:	f043 0380 	orr.w	r3, r3, #128	; 0x80
    1348:	b29b      	uxth	r3, r3
    134a:	600b      	str	r3, [r1, #0]
    134c:	d107      	bne.n	0x135e
    134e:	680b      	ldr	r3, [r1, #0]
    1350:	f423 43e0 	bic.w	r3, r3, #28672	; 0x7000
    1354:	f023 0330 	bic.w	r3, r3, #48	; 0x30
    1358:	041b      	lsls	r3, r3, #16
    135a:	0c1b      	lsrs	r3, r3, #16
    135c:	600b      	str	r3, [r1, #0]
    135e:	bd10      	pop	{r4, pc}
    1360:	0089      	lsls	r1, r1, #2
    1362:	f101 4180 	add.w	r1, r1, #1073741824	; 0x40000000
    1366:	f501 41b8 	add.w	r1, r1, #23552	; 0x5c00
    136a:	b93a      	cbnz	r2, 0x137c
    136c:	680b      	ldr	r3, [r1, #0]
    136e:	f423 5341 	bic.w	r3, r3, #12352	; 0x3040
    1372:	f023 0330 	bic.w	r3, r3, #48	; 0x30
    1376:	041b      	lsls	r3, r3, #16
    1378:	0c1b      	lsrs	r3, r3, #16
    137a:	600b      	str	r3, [r1, #0]
    137c:	2a00      	cmp	r2, #0
    137e:	bf0c      	ite	eq
    1380:	f44f 5240 	moveq.w	r2, #12288	; 0x3000
    1384:	f44f 5280 	movne.w	r2, #4096	; 0x1000
    1388:	680b      	ldr	r3, [r1, #0]
    138a:	f423 4380 	bic.w	r3, r3, #16384	; 0x4000
    138e:	f023 0370 	bic.w	r3, r3, #112	; 0x70
    1392:	4053      	eors	r3, r2
    1394:	b21b      	sxth	r3, r3
    1396:	f443 4300 	orr.w	r3, r3, #32768	; 0x8000
    139a:	f043 0380 	orr.w	r3, r3, #128	; 0x80
    139e:	b29b      	uxth	r3, r3
    13a0:	e7dc      	b.n	0x135c
    13a2:	bf00      	nop
    13a4:	5c00      	ldrb	r0, [r0, r0]
    13a6:	4000      	ands	r0, r0
    13a8:	060b      	lsls	r3, r1, #24
    13aa:	d50e      	bpl.n	0x13ca
    13ac:	f001 017f 	and.w	r1, r1, #127	; 0x7f
    13b0:	0089      	lsls	r1, r1, #2
    13b2:	f101 4180 	add.w	r1, r1, #1073741824	; 0x40000000
    13b6:	f501 41b8 	add.w	r1, r1, #23552	; 0x5c00
    13ba:	6808      	ldr	r0, [r1, #0]
    13bc:	f000 0030 	and.w	r0, r0, #48	; 0x30
    13c0:	2810      	cmp	r0, #16
    13c2:	bf14      	ite	ne
    13c4:	2000      	movne	r0, #0
    13c6:	2001      	moveq	r0, #1
    13c8:	4770      	bx	lr
    13ca:	0089      	lsls	r1, r1, #2
    13cc:	f101 4180 	add.w	r1, r1, #1073741824	; 0x40000000
    13d0:	f501 41b8 	add.w	r1, r1, #23552	; 0x5c00
    13d4:	6808      	ldr	r0, [r1, #0]
    13d6:	f400 5040 	and.w	r0, r0, #12288	; 0x3000
    13da:	f5b0 5f80 	cmp.w	r0, #4096	; 0x1000
    13de:	e7f0      	b.n	0x13c2
    13e0:	060b      	lsls	r3, r1, #24
    13e2:	d412      	bmi.n	0x140a
    13e4:	4b0b      	ldr	r3, [pc, #44]	; (0x1414)
    13e6:	480c      	ldr	r0, [pc, #48]	; (0x1418)
    13e8:	545a      	strb	r2, [r3, r1]
    13ea:	0089      	lsls	r1, r1, #2
    13ec:	f101 4180 	add.w	r1, r1, #1073741824	; 0x40000000
    13f0:	f501 41b8 	add.w	r1, r1, #23552	; 0x5c00
    13f4:	680b      	ldr	r3, [r1, #0]
    13f6:	4003      	ands	r3, r0
    13f8:	b29b      	uxth	r3, r3
    13fa:	b13a      	cbz	r2, 0x140c
    13fc:	f483 5300 	eor.w	r3, r3, #8192	; 0x2000
    1400:	f443 4300 	orr.w	r3, r3, #32768	; 0x8000
    1404:	f043 0380 	orr.w	r3, r3, #128	; 0x80
    1408:	600b      	str	r3, [r1, #0]
    140a:	4770      	bx	lr
    140c:	f483 5340 	eor.w	r3, r3, #12288	; 0x3000
    1410:	e7f6      	b.n	0x1400
    1412:	bf00      	nop
    1414:	0324      	lsls	r4, r4, #12
    1416:	2000      	movs	r0, #0
    1418:	bf8f      	iteee	hi
    141a:	ffff f001 	vaddlhi.u<illegal width 64>	<illegal reg q15.5>, d15, d1
    141e:	017f      	lslls	r7, r7, #5
    1420:	b5f8      	pushls	{r3, r4, r5, r6, r7, lr}
    1422:	008c      	lslls	r4, r1, #2
    1424:	f104 4480 	add.w	r4, r4, #1073741824	; 0x40000000
    1428:	f504 44b8 	add.w	r4, r4, #23552	; 0x5c00
    142c:	461d      	mov	r5, r3
    142e:	6823      	ldr	r3, [r4, #0]
    1430:	4694      	mov	ip, r2
    1432:	f003 0330 	and.w	r3, r3, #48	; 0x30
    1436:	2b30      	cmp	r3, #48	; 0x30
    1438:	d028      	beq.n	0x148c
    143a:	4f15      	ldr	r7, [pc, #84]	; (0x1490)
    143c:	00ce      	lsls	r6, r1, #3
    143e:	683a      	ldr	r2, [r7, #0]
    1440:	4661      	mov	r1, ip
    1442:	b292      	uxth	r2, r2
    1444:	4432      	add	r2, r6
    1446:	0052      	lsls	r2, r2, #1
    1448:	f102 4280 	add.w	r2, r2, #1073741824	; 0x40000000
    144c:	f502 42c0 	add.w	r2, r2, #24576	; 0x6000
    1450:	8810      	ldrh	r0, [r2, #0]
    1452:	462a      	mov	r2, r5
    1454:	0040      	lsls	r0, r0, #1
    1456:	f100 4080 	add.w	r0, r0, #1073741824	; 0x40000000
    145a:	f500 40c0 	add.w	r0, r0, #24576	; 0x6000
    145e:	f7ff fdb3 	bl	0xfc8
    1462:	6839      	ldr	r1, [r7, #0]
    1464:	4b0b      	ldr	r3, [pc, #44]	; (0x1494)
    1466:	b289      	uxth	r1, r1
    1468:	440e      	add	r6, r1
    146a:	0076      	lsls	r6, r6, #1
    146c:	519d      	str	r5, [r3, r6]
    146e:	6822      	ldr	r2, [r4, #0]
    1470:	f422 42e0 	bic.w	r2, r2, #28672	; 0x7000
    1474:	f022 0240 	bic.w	r2, r2, #64	; 0x40
    1478:	b292      	uxth	r2, r2
    147a:	f082 0230 	eor.w	r2, r2, #48	; 0x30
    147e:	f442 4200 	orr.w	r2, r2, #32768	; 0x8000
    1482:	f042 0280 	orr.w	r2, r2, #128	; 0x80
    1486:	6022      	str	r2, [r4, #0]
    1488:	4628      	mov	r0, r5
    148a:	bdf8      	pop	{r3, r4, r5, r6, r7, pc}
    148c:	2500      	movs	r5, #0
    148e:	e7fb      	b.n	0x1488
    1490:	5c50      	ldrb	r0, [r2, r1]
    1492:	4000      	ands	r0, r0
    1494:	6004      	str	r4, [r0, #0]
    1496:	4000      	ands	r0, r0
    1498:	b5f8      	push	{r3, r4, r5, r6, r7, lr}
    149a:	008c      	lsls	r4, r1, #2
    149c:	f104 4480 	add.w	r4, r4, #1073741824	; 0x40000000
    14a0:	f504 44b8 	add.w	r4, r4, #23552	; 0x5c00
    14a4:	461d      	mov	r5, r3
    14a6:	6823      	ldr	r3, [r4, #0]
    14a8:	460e      	mov	r6, r1
    14aa:	f403 5340 	and.w	r3, r3, #12288	; 0x3000
    14ae:	f5b3 5f40 	cmp.w	r3, #12288	; 0x3000
    14b2:	4610      	mov	r0, r2
    14b4:	d03a      	beq.n	0x152c
    14b6:	491e      	ldr	r1, [pc, #120]	; (0x1530)
    14b8:	00f2      	lsls	r2, r6, #3
    14ba:	680b      	ldr	r3, [r1, #0]
    14bc:	4f1d      	ldr	r7, [pc, #116]	; (0x1534)
    14be:	b29b      	uxth	r3, r3
    14c0:	4413      	add	r3, r2
    14c2:	005b      	lsls	r3, r3, #1
    14c4:	58fb      	ldr	r3, [r7, r3]
    14c6:	f3c3 0309 	ubfx	r3, r3, #0, #10
    14ca:	42ab      	cmp	r3, r5
    14cc:	da06      	bge.n	0x14dc
    14ce:	680b      	ldr	r3, [r1, #0]
    14d0:	b29b      	uxth	r3, r3
    14d2:	4413      	add	r3, r2
    14d4:	005b      	lsls	r3, r3, #1
    14d6:	58fd      	ldr	r5, [r7, r3]
    14d8:	f3c5 0509 	ubfx	r5, r5, #0, #10
    14dc:	680b      	ldr	r3, [r1, #0]
    14de:	b29b      	uxth	r3, r3
    14e0:	441a      	add	r2, r3
    14e2:	4b15      	ldr	r3, [pc, #84]	; (0x1538)
    14e4:	0052      	lsls	r2, r2, #1
    14e6:	5a99      	ldrh	r1, [r3, r2]
    14e8:	462a      	mov	r2, r5
    14ea:	0049      	lsls	r1, r1, #1
    14ec:	f101 4180 	add.w	r1, r1, #1073741824	; 0x40000000
    14f0:	f501 41c0 	add.w	r1, r1, #24576	; 0x6000
    14f4:	f7ff fd76 	bl	0xfe4
    14f8:	6823      	ldr	r3, [r4, #0]
    14fa:	f023 03f0 	bic.w	r3, r3, #240	; 0xf0
    14fe:	051b      	lsls	r3, r3, #20
    1500:	0d1b      	lsrs	r3, r3, #20
    1502:	f043 0380 	orr.w	r3, r3, #128	; 0x80
    1506:	6023      	str	r3, [r4, #0]
    1508:	4b0c      	ldr	r3, [pc, #48]	; (0x153c)
    150a:	5d9b      	ldrb	r3, [r3, r6]
    150c:	b963      	cbnz	r3, 0x1528
    150e:	6822      	ldr	r2, [r4, #0]
    1510:	f422 4280 	bic.w	r2, r2, #16384	; 0x4000
    1514:	f022 0270 	bic.w	r2, r2, #112	; 0x70
    1518:	b292      	uxth	r2, r2
    151a:	f482 5240 	eor.w	r2, r2, #12288	; 0x3000
    151e:	f442 4200 	orr.w	r2, r2, #32768	; 0x8000
    1522:	f042 0280 	orr.w	r2, r2, #128	; 0x80
    1526:	6022      	str	r2, [r4, #0]
    1528:	4628      	mov	r0, r5
    152a:	bdf8      	pop	{r3, r4, r5, r6, r7, pc}
    152c:	2500      	movs	r5, #0
    152e:	e7fb      	b.n	0x1528
    1530:	5c50      	ldrb	r0, [r2, r1]
    1532:	4000      	ands	r0, r0
    1534:	600c      	str	r4, [r1, #0]
    1536:	4000      	ands	r0, r0
    1538:	6008      	str	r0, [r1, #0]
    153a:	4000      	ands	r0, r0
    153c:	0324      	lsls	r4, r4, #12
    153e:	2000      	movs	r0, #0
    1540:	4a37      	ldr	r2, [pc, #220]	; (0x1620)
    1542:	e92d 41f0 	stmdb	sp!, {r4, r5, r6, r7, r8, lr}
    1546:	6813      	ldr	r3, [r2, #0]
    1548:	4605      	mov	r5, r0
    154a:	f413 6f80 	tst.w	r3, #1024	; 0x400
    154e:	b29f      	uxth	r7, r3
    1550:	4616      	mov	r6, r2
    1552:	d008      	beq.n	0x1566
    1554:	e8bd 41f0 	ldmia.w	sp!, {r4, r5, r6, r7, r8, lr}
    1558:	f64f 33ff 	movw	r3, #64511	; 0xfbff
    155c:	6013      	str	r3, [r2, #0]
    155e:	2340      	movs	r3, #64	; 0x40
    1560:	8303      	strh	r3, [r0, #24]
    1562:	f7ff b8ee 	b.w	0x742
    1566:	041c      	lsls	r4, r3, #16
    1568:	d51f      	bpl.n	0x15aa
    156a:	f003 080f 	and.w	r8, r3, #15
    156e:	ea4f 0488 	mov.w	r4, r8, lsl #2
    1572:	f104 4480 	add.w	r4, r4, #1073741824	; 0x40000000
    1576:	f013 0310 	ands.w	r3, r3, #16
    157a:	f504 44b8 	add.w	r4, r4, #23552	; 0x5c00
    157e:	d036      	beq.n	0x15ee
    1580:	6823      	ldr	r3, [r4, #0]
    1582:	0519      	lsls	r1, r3, #20
    1584:	d53c      	bpl.n	0x1600
    1586:	2308      	movs	r3, #8
    1588:	f100 0230 	add.w	r2, r0, #48	; 0x30
    158c:	4641      	mov	r1, r8
    158e:	f7ff ff83 	bl	0x1498
    1592:	2302      	movs	r3, #2
    1594:	eb08 0248 	add.w	r2, r8, r8, lsl #1
    1598:	4413      	add	r3, r2
    159a:	331a      	adds	r3, #26
    159c:	f855 3023 	ldr.w	r3, [r5, r3, lsl #2]
    15a0:	2b00      	cmp	r3, #0
    15a2:	d02f      	beq.n	0x1604
    15a4:	4641      	mov	r1, r8
    15a6:	4628      	mov	r0, r5
    15a8:	4798      	blx	r3
    15aa:	053a      	lsls	r2, r7, #20
    15ac:	d505      	bpl.n	0x15ba
    15ae:	f24f 73ff 	movw	r3, #63487	; 0xf7ff
    15b2:	6033      	str	r3, [r6, #0]
    15b4:	6a2b      	ldr	r3, [r5, #32]
    15b6:	b103      	cbz	r3, 0x15ba
    15b8:	4798      	blx	r3
    15ba:	04fb      	lsls	r3, r7, #19
    15bc:	d505      	bpl.n	0x15ca
    15be:	f64e 73ff 	movw	r3, #61439	; 0xefff
    15c2:	6033      	str	r3, [r6, #0]
    15c4:	6a6b      	ldr	r3, [r5, #36]	; 0x24
    15c6:	b103      	cbz	r3, 0x15ca
    15c8:	4798      	blx	r3
    15ca:	f417 7f00 	tst.w	r7, #512	; 0x200
    15ce:	4c15      	ldr	r4, [pc, #84]	; (0x1624)
    15d0:	d005      	beq.n	0x15de
    15d2:	f64f 52ff 	movw	r2, #65023	; 0xfdff
    15d6:	6aab      	ldr	r3, [r5, #40]	; 0x28
    15d8:	6032      	str	r2, [r6, #0]
    15da:	b1e3      	cbz	r3, 0x1616
    15dc:	4798      	blx	r3
    15de:	6aab      	ldr	r3, [r5, #40]	; 0x28
    15e0:	b1cb      	cbz	r3, 0x1616
    15e2:	6823      	ldr	r3, [r4, #0]
    15e4:	f443 7300 	orr.w	r3, r3, #512	; 0x200
    15e8:	6023      	str	r3, [r4, #0]
    15ea:	e8bd 81f0 	ldmia.w	sp!, {r4, r5, r6, r7, r8, pc}
    15ee:	6822      	ldr	r2, [r4, #0]
    15f0:	f022 02f0 	bic.w	r2, r2, #240	; 0xf0
    15f4:	0512      	lsls	r2, r2, #20
    15f6:	0d12      	lsrs	r2, r2, #20
    15f8:	f442 4200 	orr.w	r2, r2, #32768	; 0x8000
    15fc:	6022      	str	r2, [r4, #0]
    15fe:	e7c9      	b.n	0x1594
    1600:	2301      	movs	r3, #1
    1602:	e7c7      	b.n	0x1594
    1604:	6823      	ldr	r3, [r4, #0]
    1606:	f023 03f0 	bic.w	r3, r3, #240	; 0xf0
    160a:	051b      	lsls	r3, r3, #20
    160c:	0d1b      	lsrs	r3, r3, #20
    160e:	f043 0380 	orr.w	r3, r3, #128	; 0x80
    1612:	6023      	str	r3, [r4, #0]
    1614:	e7c9      	b.n	0x15aa
    1616:	6823      	ldr	r3, [r4, #0]
    1618:	f423 7300 	bic.w	r3, r3, #512	; 0x200
    161c:	e7e4      	b.n	0x15e8
    161e:	bf00      	nop
    1620:	5c44      	ldrb	r4, [r0, r1]
    1622:	4000      	ands	r0, r0
    1624:	5c40      	ldrb	r0, [r0, r1]
    1626:	4000      	ands	r0, r0
    1628:	b510      	push	{r4, lr}
    162a:	1e43      	subs	r3, r0, #1
    162c:	440a      	add	r2, r1
    162e:	4291      	cmp	r1, r2
    1630:	d100      	bne.n	0x1634
    1632:	bd10      	pop	{r4, pc}
    1634:	f811 4b01 	ldrb.w	r4, [r1], #1
    1638:	f803 4f01 	strb.w	r4, [r3, #1]!
    163c:	e7f7      	b.n	0x162e
    163e:	4603      	mov	r3, r0
    1640:	f813 2b01 	ldrb.w	r2, [r3], #1
    1644:	2a00      	cmp	r2, #0
    1646:	d1fb      	bne.n	0x1640
    1648:	1a18      	subs	r0, r3, r0
    164a:	3801      	subs	r0, #1
    164c:	4770      	bx	lr
    164e:	0000      	movs	r0, r0
    1650:	3130      	adds	r1, #48	; 0x30
    1652:	3332      	adds	r3, #50	; 0x32
    1654:	3534      	adds	r5, #52	; 0x34
    1656:	3736      	adds	r7, #54	; 0x36
    1658:	3938      	subs	r1, #56	; 0x38
    165a:	4241      	negs	r1, r0
    165c:	4443      	add	r3, r8
    165e:	4645      	mov	r5, r8
    1660:	0700      	lsls	r0, r0, #28
    1662:	0105      	lsls	r5, r0, #4
    1664:	4002      	ands	r2, r0
	...
    166e:	0000      	movs	r0, r0
    1670:	0507      	lsls	r7, r0, #20
    1672:	0282      	lsls	r2, r0, #10
    1674:	0040      	lsls	r0, r0, #1
	...
    167e:	0900      	lsrs	r0, r0, #4
    1680:	0004      	movs	r4, r0
    1682:	0200      	lsls	r0, r0, #8
    1684:	00ff      	lsls	r7, r7, #3
    1686:	0400      	lsls	r0, r0, #16
    1688:	1661      	asrs	r1, r4, #25
    168a:	0800      	lsrs	r0, r0, #32
	...
    1694:	7073      	strb	r3, [r6, #1]
    1696:	6e69      	ldr	r1, [r5, #100]	; 0x64
    1698:	006f      	lsls	r7, r5, #1
    169a:	6552      	str	r2, [r2, #84]	; 0x54
    169c:	6570      	str	r0, [r6, #84]	; 0x54
    169e:	7461      	strb	r1, [r4, #17]
    16a0:	7265      	strb	r5, [r4, #9]
    16a2:	5200      	strh	r0, [r0, r0]
    16a4:	7065      	strb	r5, [r4, #1]
    16a6:	6165      	str	r5, [r4, #20]
    16a8:	6574      	str	r4, [r6, #84]	; 0x54
    16aa:	2072      	movs	r0, #114	; 0x72
    16ac:	6e49      	ldr	r1, [r1, #100]	; 0x64
    16ae:	6574      	str	r4, [r6, #84]	; 0x54
    16b0:	6672      	str	r2, [r6, #100]	; 0x64
    16b2:	6361      	str	r1, [r4, #52]	; 0x34
    16b4:	0065      	lsls	r5, r4, #1
    16b6:	0209      	lsls	r1, r1, #8
    16b8:	0000      	movs	r0, r0
    16ba:	0101      	lsls	r1, r0, #4
    16bc:	8000      	strh	r0, [r0, #0]
    16be:	e8fa 0016 	ldrd	r0, r0, [sl], #88	; 0x58
    16c2:	0008      	movs	r0, r1
    16c4:	1694      	asrs	r4, r2, #26
    16c6:	0800      	lsrs	r0, r0, #32
    16c8:	169a      	asrs	r2, r3, #26
    16ca:	0800      	lsrs	r0, r0, #32
    16cc:	0010      	movs	r0, r2
    16ce:	2000      	movs	r0, #0
    16d0:	16a3      	asrs	r3, r4, #26
    16d2:	0800      	lsrs	r0, r0, #32
    16d4:	0112      	lsls	r2, r2, #4
    16d6:	0200      	lsls	r0, r0, #8
    16d8:	00ff      	lsls	r7, r7, #3
    16da:	4000      	ands	r0, r0
    16dc:	cafe      	ldmia	r2, {r1, r2, r3, r4, r5, r6, r7}
    16de:	cafe      	ldmia	r2, {r1, r2, r3, r4, r5, r6, r7}
    16e0:	0061      	lsls	r1, r4, #1
    16e2:	0201      	lsls	r1, r0, #8
    16e4:	0103      	lsls	r3, r0, #4
    16e6:	0000      	movs	r0, r0
    16e8:	0000      	movs	r0, r0
    16ea:	0000      	movs	r0, r0
    16ec:	0001      	movs	r1, r0
    16ee:	0000      	movs	r0, r0
    16f0:	0000      	movs	r0, r0
    16f2:	0000      	movs	r0, r0
    16f4:	167f      	asrs	r7, r7, #25
    16f6:	0800      	lsrs	r0, r0, #32
    16f8:	0f99      	lsrs	r1, r3, #30
    16fa:	0800      	lsrs	r0, r0, #32
    16fc:	1141      	asrs	r1, r0, #5
    16fe:	0800      	lsrs	r0, r0, #32
    1700:	118d      	asrs	r5, r1, #6
    1702:	0800      	lsrs	r0, r0, #32
    1704:	12a9      	asrs	r1, r5, #10
    1706:	0800      	lsrs	r0, r0, #32
    1708:	12ed      	asrs	r5, r5, #11
    170a:	0800      	lsrs	r0, r0, #32
    170c:	13e1      	asrs	r1, r4, #15
    170e:	0800      	lsrs	r0, r0, #32
    1710:	13a9      	asrs	r1, r5, #14
    1712:	0800      	lsrs	r0, r0, #32
    1714:	141d      	asrs	r5, r3, #16
    1716:	0800      	lsrs	r0, r0, #32
    1718:	1499      	asrs	r1, r3, #18
    171a:	0800      	lsrs	r0, r0, #32
    171c:	1541      	asrs	r1, r0, #21
    171e:	0800      	lsrs	r0, r0, #32
	...
    172c:	1200      	asrs	r0, r0, #8
    172e:	007a      	lsls	r2, r7, #1
    1730:	1200      	asrs	r0, r0, #8
    1732:	007a      	lsls	r2, r7, #1
    1734:	1200      	asrs	r0, r0, #8
    1736:	007a      	lsls	r2, r7, #1
    1738:	ffff ffff 			; <UNDEFINED> instruction: 0xffffffff
    173c:	ffff ffff 			; <UNDEFINED> instruction: 0xffffffff
    1740:	ffff ffff 			; <UNDEFINED> instruction: 0xffffffff
    1744:	ffff ffff 			; <UNDEFINED> instruction: 0xffffffff
    1748:	ffff ffff 			; <UNDEFINED> instruction: 0xffffffff
    174c:	ffff ffff 			; <UNDEFINED> instruction: 0xffffffff
    1750:	ffff ffff 			; <UNDEFINED> instruction: 0xffffffff
    1754:	ffff ffff 			; <UNDEFINED> instruction: 0xffffffff
    1758:	ffff ffff 			; <UNDEFINED> instruction: 0xffffffff
    175c:	ffff ffff 			; <UNDEFINED> instruction: 0xffffffff
    1760:	ffff ffff 			; <UNDEFINED> instruction: 0xffffffff
    1764:	ffff ffff 			; <UNDEFINED> instruction: 0xffffffff
    1768:	ffff ffff 			; <UNDEFINED> instruction: 0xffffffff
    176c:	ffff ffff 			; <UNDEFINED> instruction: 0xffffffff
    1770:	ffff ffff 			; <UNDEFINED> instruction: 0xffffffff
    1774:	ffff ffff 			; <UNDEFINED> instruction: 0xffffffff
    1778:	ffff ffff 			; <UNDEFINED> instruction: 0xffffffff
    177c:	ffff ffff 			; <UNDEFINED> instruction: 0xffffffff
    1780:	ffff ffff 			; <UNDEFINED> instruction: 0xffffffff
    1784:	ffff ffff 			; <UNDEFINED> instruction: 0xffffffff
    1788:	ffff ffff 			; <UNDEFINED> instruction: 0xffffffff
    178c:	ffff ffff 			; <UNDEFINED> instruction: 0xffffffff
    1790:	ffff ffff 			; <UNDEFINED> instruction: 0xffffffff
    1794:	ffff ffff 			; <UNDEFINED> instruction: 0xffffffff
    1798:	ffff ffff 			; <UNDEFINED> instruction: 0xffffffff
    179c:	ffff ffff 			; <UNDEFINED> instruction: 0xffffffff
    17a0:	ffff ffff 			; <UNDEFINED> instruction: 0xffffffff
    17a4:	ffff ffff 			; <UNDEFINED> instruction: 0xffffffff
    17a8:	ffff ffff 			; <UNDEFINED> instruction: 0xffffffff
    17ac:	ffff ffff 			; <UNDEFINED> instruction: 0xffffffff
    17b0:	ffff ffff 			; <UNDEFINED> instruction: 0xffffffff
    17b4:	ffff ffff 			; <UNDEFINED> instruction: 0xffffffff
    17b8:	ffff ffff 			; <UNDEFINED> instruction: 0xffffffff
    17bc:	ffff ffff 			; <UNDEFINED> instruction: 0xffffffff
    17c0:	ffff ffff 			; <UNDEFINED> instruction: 0xffffffff
    17c4:	ffff ffff 			; <UNDEFINED> instruction: 0xffffffff
    17c8:	ffff ffff 			; <UNDEFINED> instruction: 0xffffffff
    17cc:	ffff ffff 			; <UNDEFINED> instruction: 0xffffffff
    17d0:	ffff ffff 			; <UNDEFINED> instruction: 0xffffffff
    17d4:	ffff ffff 			; <UNDEFINED> instruction: 0xffffffff
    17d8:	ffff ffff 			; <UNDEFINED> instruction: 0xffffffff
    17dc:	ffff ffff 			; <UNDEFINED> instruction: 0xffffffff
    17e0:	ffff ffff 			; <UNDEFINED> instruction: 0xffffffff
    17e4:	ffff ffff 			; <UNDEFINED> instruction: 0xffffffff
    17e8:	ffff ffff 			; <UNDEFINED> instruction: 0xffffffff
    17ec:	ffff ffff 			; <UNDEFINED> instruction: 0xffffffff
    17f0:	ffff ffff 			; <UNDEFINED> instruction: 0xffffffff
    17f4:	ffff ffff 			; <UNDEFINED> instruction: 0xffffffff
    17f8:	ffff ffff 			; <UNDEFINED> instruction: 0xffffffff
    17fc:	ffff ffff 			; <UNDEFINED> instruction: 0xffffffff
	...
   10000:	5000      	str	r0, [r0, r0]
   10002:	2000      	movs	r0, #0
   10004:	04c5      	lsls	r5, r0, #19
   10006:	0800      	lsrs	r0, r0, #32
   10008:	04c1      	lsls	r1, r0, #19
   1000a:	0800      	lsrs	r0, r0, #32
   1000c:	04bf      	lsls	r7, r7, #18
   1000e:	0800      	lsrs	r0, r0, #32
   10010:	04bf      	lsls	r7, r7, #18
   10012:	0800      	lsrs	r0, r0, #32
   10014:	04bf      	lsls	r7, r7, #18
   10016:	0800      	lsrs	r0, r0, #32
   10018:	04bf      	lsls	r7, r7, #18
   1001a:	0800      	lsrs	r0, r0, #32
	...
   1002c:	04c1      	lsls	r1, r0, #19
   1002e:	0800      	lsrs	r0, r0, #32
   10030:	04c1      	lsls	r1, r0, #19
   10032:	0800      	lsrs	r0, r0, #32
   10034:	0000      	movs	r0, r0
   10036:	0000      	movs	r0, r0
   10038:	04c1      	lsls	r1, r0, #19
   1003a:	0800      	lsrs	r0, r0, #32
   1003c:	04c1      	lsls	r1, r0, #19
   1003e:	0800      	lsrs	r0, r0, #32
   10040:	04bf      	lsls	r7, r7, #18
   10042:	0800      	lsrs	r0, r0, #32
   10044:	04bf      	lsls	r7, r7, #18
   10046:	0800      	lsrs	r0, r0, #32
   10048:	04bf      	lsls	r7, r7, #18
   1004a:	0800      	lsrs	r0, r0, #32
   1004c:	04bf      	lsls	r7, r7, #18
   1004e:	0800      	lsrs	r0, r0, #32
   10050:	04bf      	lsls	r7, r7, #18
   10052:	0800      	lsrs	r0, r0, #32
   10054:	04bf      	lsls	r7, r7, #18
   10056:	0800      	lsrs	r0, r0, #32
   10058:	04bf      	lsls	r7, r7, #18
   1005a:	0800      	lsrs	r0, r0, #32
   1005c:	04bf      	lsls	r7, r7, #18
   1005e:	0800      	lsrs	r0, r0, #32
   10060:	04bf      	lsls	r7, r7, #18
   10062:	0800      	lsrs	r0, r0, #32
   10064:	04bf      	lsls	r7, r7, #18
   10066:	0800      	lsrs	r0, r0, #32
   10068:	04bf      	lsls	r7, r7, #18
   1006a:	0800      	lsrs	r0, r0, #32
   1006c:	04bf      	lsls	r7, r7, #18
   1006e:	0800      	lsrs	r0, r0, #32
   10070:	04bf      	lsls	r7, r7, #18
   10072:	0800      	lsrs	r0, r0, #32
   10074:	04bf      	lsls	r7, r7, #18
   10076:	0800      	lsrs	r0, r0, #32
   10078:	04bf      	lsls	r7, r7, #18
   1007a:	0800      	lsrs	r0, r0, #32
   1007c:	04bf      	lsls	r7, r7, #18
   1007e:	0800      	lsrs	r0, r0, #32
   10080:	04bf      	lsls	r7, r7, #18
   10082:	0800      	lsrs	r0, r0, #32
   10084:	04bf      	lsls	r7, r7, #18
   10086:	0800      	lsrs	r0, r0, #32
   10088:	04bf      	lsls	r7, r7, #18
   1008a:	0800      	lsrs	r0, r0, #32
   1008c:	04bf      	lsls	r7, r7, #18
   1008e:	0800      	lsrs	r0, r0, #32
   10090:	04bf      	lsls	r7, r7, #18
   10092:	0800      	lsrs	r0, r0, #32
   10094:	04bf      	lsls	r7, r7, #18
   10096:	0800      	lsrs	r0, r0, #32
   10098:	04bf      	lsls	r7, r7, #18
   1009a:	0800      	lsrs	r0, r0, #32
   1009c:	04bf      	lsls	r7, r7, #18
   1009e:	0800      	lsrs	r0, r0, #32
   100a0:	04bf      	lsls	r7, r7, #18
   100a2:	0800      	lsrs	r0, r0, #32
   100a4:	04bf      	lsls	r7, r7, #18
   100a6:	0800      	lsrs	r0, r0, #32
   100a8:	04bf      	lsls	r7, r7, #18
   100aa:	0800      	lsrs	r0, r0, #32
   100ac:	04bf      	lsls	r7, r7, #18
   100ae:	0800      	lsrs	r0, r0, #32
   100b0:	04bf      	lsls	r7, r7, #18
   100b2:	0800      	lsrs	r0, r0, #32
   100b4:	04bf      	lsls	r7, r7, #18
   100b6:	0800      	lsrs	r0, r0, #32
   100b8:	04bf      	lsls	r7, r7, #18
   100ba:	0800      	lsrs	r0, r0, #32
   100bc:	04bf      	lsls	r7, r7, #18
   100be:	0800      	lsrs	r0, r0, #32
   100c0:	04bf      	lsls	r7, r7, #18
   100c2:	0800      	lsrs	r0, r0, #32
   100c4:	04bf      	lsls	r7, r7, #18
   100c6:	0800      	lsrs	r0, r0, #32
   100c8:	04bf      	lsls	r7, r7, #18
   100ca:	0800      	lsrs	r0, r0, #32
   100cc:	04bf      	lsls	r7, r7, #18
   100ce:	0800      	lsrs	r0, r0, #32
   100d0:	04bf      	lsls	r7, r7, #18
   100d2:	0800      	lsrs	r0, r0, #32
   100d4:	04bf      	lsls	r7, r7, #18
   100d6:	0800      	lsrs	r0, r0, #32
   100d8:	04bf      	lsls	r7, r7, #18
   100da:	0800      	lsrs	r0, r0, #32
   100dc:	04bf      	lsls	r7, r7, #18
   100de:	0800      	lsrs	r0, r0, #32
   100e0:	04bf      	lsls	r7, r7, #18
   100e2:	0800      	lsrs	r0, r0, #32
   100e4:	04bf      	lsls	r7, r7, #18
   100e6:	0800      	lsrs	r0, r0, #32
   100e8:	04bf      	lsls	r7, r7, #18
   100ea:	0800      	lsrs	r0, r0, #32
   100ec:	04bf      	lsls	r7, r7, #18
   100ee:	0800      	lsrs	r0, r0, #32
   100f0:	04bf      	lsls	r7, r7, #18
   100f2:	0800      	lsrs	r0, r0, #32
   100f4:	04bf      	lsls	r7, r7, #18
   100f6:	0800      	lsrs	r0, r0, #32
   100f8:	04bf      	lsls	r7, r7, #18
   100fa:	0800      	lsrs	r0, r0, #32
   100fc:	04bf      	lsls	r7, r7, #18
   100fe:	0800      	lsrs	r0, r0, #32
   10100:	04bf      	lsls	r7, r7, #18
   10102:	0800      	lsrs	r0, r0, #32
   10104:	04bf      	lsls	r7, r7, #18
   10106:	0800      	lsrs	r0, r0, #32
   10108:	04bf      	lsls	r7, r7, #18
   1010a:	0800      	lsrs	r0, r0, #32
   1010c:	04bf      	lsls	r7, r7, #18
   1010e:	0800      	lsrs	r0, r0, #32
   10110:	04bf      	lsls	r7, r7, #18
   10112:	0800      	lsrs	r0, r0, #32
   10114:	04bf      	lsls	r7, r7, #18
   10116:	0800      	lsrs	r0, r0, #32
   10118:	04bf      	lsls	r7, r7, #18
   1011a:	0800      	lsrs	r0, r0, #32
   1011c:	04bf      	lsls	r7, r7, #18
   1011e:	0800      	lsrs	r0, r0, #32
   10120:	04bf      	lsls	r7, r7, #18
   10122:	0800      	lsrs	r0, r0, #32
   10124:	04bf      	lsls	r7, r7, #18
   10126:	0800      	lsrs	r0, r0, #32
   10128:	04bf      	lsls	r7, r7, #18
   1012a:	0800      	lsrs	r0, r0, #32
   1012c:	04bf      	lsls	r7, r7, #18
   1012e:	0800      	lsrs	r0, r0, #32
   10130:	04bf      	lsls	r7, r7, #18
   10132:	0800      	lsrs	r0, r0, #32
   10134:	04bf      	lsls	r7, r7, #18
   10136:	0800      	lsrs	r0, r0, #32
   10138:	04bf      	lsls	r7, r7, #18
   1013a:	0800      	lsrs	r0, r0, #32
   1013c:	04bf      	lsls	r7, r7, #18
   1013e:	0800      	lsrs	r0, r0, #32
   10140:	04bf      	lsls	r7, r7, #18
   10142:	0800      	lsrs	r0, r0, #32
   10144:	04bf      	lsls	r7, r7, #18
   10146:	0800      	lsrs	r0, r0, #32
   10148:	04bf      	lsls	r7, r7, #18
   1014a:	0800      	lsrs	r0, r0, #32
   1014c:	04bf      	lsls	r7, r7, #18
   1014e:	0800      	lsrs	r0, r0, #32
   10150:	b510      	push	{r4, lr}
   10152:	480c      	ldr	r0, [pc, #48]	; (0x10184)
   10154:	f000 f948 	bl	0x103e8
   10158:	f44f 7041 	mov.w	r0, #772	; 0x304
   1015c:	f000 f9a2 	bl	0x104a4
   10160:	f44f 5300 	mov.w	r3, #8192	; 0x2000
   10164:	2200      	movs	r2, #0
   10166:	2102      	movs	r1, #2
   10168:	4807      	ldr	r0, [pc, #28]	; (0x10188)
   1016a:	f000 f811 	bl	0x10190
   1016e:	4c06      	ldr	r4, [pc, #24]	; (0x10188)
   10170:	f44f 5100 	mov.w	r1, #8192	; 0x2000
   10174:	4620      	mov	r0, r4
   10176:	f000 f83a 	bl	0x101ee
   1017a:	4b04      	ldr	r3, [pc, #16]	; (0x1018c)
   1017c:	bf00      	nop
   1017e:	3b01      	subs	r3, #1
   10180:	d1fc      	bne.n	0x1017c
   10182:	e7f5      	b.n	0x10170
   10184:	0588      	lsls	r0, r1, #22
   10186:	0800      	lsrs	r0, r0, #32
   10188:	1000      	asrs	r0, r0, #32
   1018a:	4001      	ands	r1, r0
   1018c:	3500      	adds	r5, #0
   1018e:	000c      	movs	r4, r1
   10190:	e92d 41f0 	stmdb	sp!, {r4, r5, r6, r7, r8, lr}
   10194:	f04f 0c0f 	mov.w	ip, #15
   10198:	2500      	movs	r5, #0
   1019a:	6807      	ldr	r7, [r0, #0]
   1019c:	6846      	ldr	r6, [r0, #4]
   1019e:	fa43 f405 	asr.w	r4, r3, r5
   101a2:	07e4      	lsls	r4, r4, #31
   101a4:	d51c      	bpl.n	0x101e0
   101a6:	2d07      	cmp	r5, #7
   101a8:	bf94      	ite	ls
   101aa:	46be      	movls	lr, r7
   101ac:	46b6      	movhi	lr, r6
   101ae:	b2ac      	uxth	r4, r5
   101b0:	ea4f 0484 	mov.w	r4, r4, lsl #2
   101b4:	bf8a      	itet	hi
   101b6:	3c20      	subhi	r4, #32
   101b8:	b2a4      	uxthls	r4, r4
   101ba:	b2a4      	uxthhi	r4, r4
   101bc:	fa0c f804 	lsl.w	r8, ip, r4
   101c0:	ea2e 0808 	bic.w	r8, lr, r8
   101c4:	f104 0e02 	add.w	lr, r4, #2
   101c8:	fa02 fe0e 	lsl.w	lr, r2, lr
   101cc:	fa01 f404 	lsl.w	r4, r1, r4
   101d0:	ea4e 0404 	orr.w	r4, lr, r4
   101d4:	ea44 0408 	orr.w	r4, r4, r8
   101d8:	2d08      	cmp	r5, #8
   101da:	bf2c      	ite	cs
   101dc:	4626      	movcs	r6, r4
   101de:	4627      	movcc	r7, r4
   101e0:	3501      	adds	r5, #1
   101e2:	2d10      	cmp	r5, #16
   101e4:	d1db      	bne.n	0x1019e
   101e6:	6007      	str	r7, [r0, #0]
   101e8:	6046      	str	r6, [r0, #4]
   101ea:	e8bd 81f0 	ldmia.w	sp!, {r4, r5, r6, r7, r8, pc}
   101ee:	68c3      	ldr	r3, [r0, #12]
   101f0:	ea01 0203 	and.w	r2, r1, r3
   101f4:	ea21 0103 	bic.w	r1, r1, r3
   101f8:	ea41 4102 	orr.w	r1, r1, r2, lsl #16
   101fc:	6101      	str	r1, [r0, #16]
   101fe:	4770      	bx	lr
   10200:	2806      	cmp	r0, #6
   10202:	d824      	bhi.n	0x1024e
   10204:	e8df f000 	tbb	[pc, r0]
   10208:	0904      	lsrs	r4, r0, #4
   1020a:	130e      	asrs	r6, r1, #12
   1020c:	1d18      	adds	r0, r3, #4
   1020e:	0020      	movs	r0, r4
   10210:	4b10      	ldr	r3, [pc, #64]	; (0x10254)
   10212:	6818      	ldr	r0, [r3, #0]
   10214:	f3c0 6040 	ubfx	r0, r0, #25, #1
   10218:	4770      	bx	lr
   1021a:	4b0e      	ldr	r3, [pc, #56]	; (0x10254)
   1021c:	6818      	ldr	r0, [r3, #0]
   1021e:	f3c0 60c0 	ubfx	r0, r0, #27, #1
   10222:	4770      	bx	lr
   10224:	4b0b      	ldr	r3, [pc, #44]	; (0x10254)
   10226:	6818      	ldr	r0, [r3, #0]
   10228:	f3c0 7040 	ubfx	r0, r0, #29, #1
   1022c:	4770      	bx	lr
   1022e:	4b09      	ldr	r3, [pc, #36]	; (0x10254)
   10230:	6818      	ldr	r0, [r3, #0]
   10232:	f3c0 4040 	ubfx	r0, r0, #17, #1
   10236:	4770      	bx	lr
   10238:	4b06      	ldr	r3, [pc, #24]	; (0x10254)
   1023a:	6818      	ldr	r0, [r3, #0]
   1023c:	f3c0 0040 	ubfx	r0, r0, #1, #1
   10240:	4770      	bx	lr
   10242:	4b04      	ldr	r3, [pc, #16]	; (0x10254)
   10244:	6a18      	ldr	r0, [r3, #32]
   10246:	e7f9      	b.n	0x1023c
   10248:	4b02      	ldr	r3, [pc, #8]	; (0x10254)
   1024a:	6a58      	ldr	r0, [r3, #36]	; 0x24
   1024c:	e7f6      	b.n	0x1023c
   1024e:	2000      	movs	r0, #0
   10250:	4770      	bx	lr
   10252:	bf00      	nop
   10254:	1000      	asrs	r0, r0, #32
   10256:	4002      	ands	r2, r0
   10258:	4602      	mov	r2, r0
   1025a:	b508      	push	{r3, lr}
   1025c:	4610      	mov	r0, r2
   1025e:	f7ff ffcf 	bl	0x10200
   10262:	2800      	cmp	r0, #0
   10264:	d0fa      	beq.n	0x1025c
   10266:	bd08      	pop	{r3, pc}
   10268:	2806      	cmp	r0, #6
   1026a:	d82a      	bhi.n	0x102c2
   1026c:	e8df f000 	tbb	[pc, r0]
   10270:	0a04      	lsrs	r4, r0, #8
   10272:	140f      	asrs	r7, r1, #16
   10274:	1e19      	subs	r1, r3, #0
   10276:	0024      	movs	r4, r4
   10278:	4a12      	ldr	r2, [pc, #72]	; (0x102c4)
   1027a:	6813      	ldr	r3, [r2, #0]
   1027c:	f043 7380 	orr.w	r3, r3, #16777216	; 0x1000000
   10280:	6013      	str	r3, [r2, #0]
   10282:	4770      	bx	lr
   10284:	4a0f      	ldr	r2, [pc, #60]	; (0x102c4)
   10286:	6813      	ldr	r3, [r2, #0]
   10288:	f043 6380 	orr.w	r3, r3, #67108864	; 0x4000000
   1028c:	e7f8      	b.n	0x10280
   1028e:	4a0d      	ldr	r2, [pc, #52]	; (0x102c4)
   10290:	6813      	ldr	r3, [r2, #0]
   10292:	f043 5380 	orr.w	r3, r3, #268435456	; 0x10000000
   10296:	e7f3      	b.n	0x10280
   10298:	4a0a      	ldr	r2, [pc, #40]	; (0x102c4)
   1029a:	6813      	ldr	r3, [r2, #0]
   1029c:	f443 3380 	orr.w	r3, r3, #65536	; 0x10000
   102a0:	e7ee      	b.n	0x10280
   102a2:	4a08      	ldr	r2, [pc, #32]	; (0x102c4)
   102a4:	6813      	ldr	r3, [r2, #0]
   102a6:	f043 0301 	orr.w	r3, r3, #1
   102aa:	e7e9      	b.n	0x10280
   102ac:	4a05      	ldr	r2, [pc, #20]	; (0x102c4)
   102ae:	6a13      	ldr	r3, [r2, #32]
   102b0:	f043 0301 	orr.w	r3, r3, #1
   102b4:	6213      	str	r3, [r2, #32]
   102b6:	4770      	bx	lr
   102b8:	4a02      	ldr	r2, [pc, #8]	; (0x102c4)
   102ba:	6a53      	ldr	r3, [r2, #36]	; 0x24
   102bc:	f043 0301 	orr.w	r3, r3, #1
   102c0:	6253      	str	r3, [r2, #36]	; 0x24
   102c2:	4770      	bx	lr
   102c4:	1000      	asrs	r0, r0, #32
   102c6:	4002      	ands	r2, r0
   102c8:	4a03      	ldr	r2, [pc, #12]	; (0x102d8)
   102ca:	6853      	ldr	r3, [r2, #4]
   102cc:	f023 0303 	bic.w	r3, r3, #3
   102d0:	4303      	orrs	r3, r0
   102d2:	6053      	str	r3, [r2, #4]
   102d4:	4770      	bx	lr
   102d6:	bf00      	nop
   102d8:	1000      	asrs	r0, r0, #32
   102da:	4002      	ands	r2, r0
   102dc:	4a03      	ldr	r2, [pc, #12]	; (0x102ec)
   102de:	6853      	ldr	r3, [r2, #4]
   102e0:	f423 1370 	bic.w	r3, r3, #3932160	; 0x3c0000
   102e4:	ea43 4380 	orr.w	r3, r3, r0, lsl #18
   102e8:	6053      	str	r3, [r2, #4]
   102ea:	4770      	bx	lr
   102ec:	1000      	asrs	r0, r0, #32
   102ee:	4002      	ands	r2, r0
   102f0:	4a03      	ldr	r2, [pc, #12]	; (0x10300)
   102f2:	6ad3      	ldr	r3, [r2, #44]	; 0x2c
   102f4:	f423 6370 	bic.w	r3, r3, #3840	; 0xf00
   102f8:	ea43 2300 	orr.w	r3, r3, r0, lsl #8
   102fc:	62d3      	str	r3, [r2, #44]	; 0x2c
   102fe:	4770      	bx	lr
   10300:	1000      	asrs	r0, r0, #32
   10302:	4002      	ands	r2, r0
   10304:	4a03      	ldr	r2, [pc, #12]	; (0x10314)
   10306:	6ad3      	ldr	r3, [r2, #44]	; 0x2c
   10308:	f423 4370 	bic.w	r3, r3, #61440	; 0xf000
   1030c:	ea43 3300 	orr.w	r3, r3, r0, lsl #12
   10310:	62d3      	str	r3, [r2, #44]	; 0x2c
   10312:	4770      	bx	lr
   10314:	1000      	asrs	r0, r0, #32
   10316:	4002      	ands	r2, r0
   10318:	4a03      	ldr	r2, [pc, #12]	; (0x10328)
   1031a:	6853      	ldr	r3, [r2, #4]
   1031c:	f423 3380 	bic.w	r3, r3, #65536	; 0x10000
   10320:	ea43 4300 	orr.w	r3, r3, r0, lsl #16
   10324:	6053      	str	r3, [r2, #4]
   10326:	4770      	bx	lr
   10328:	1000      	asrs	r0, r0, #32
   1032a:	4002      	ands	r2, r0
   1032c:	4a03      	ldr	r2, [pc, #12]	; (0x1033c)
   1032e:	6853      	ldr	r3, [r2, #4]
   10330:	f423 3300 	bic.w	r3, r3, #131072	; 0x20000
   10334:	ea43 4340 	orr.w	r3, r3, r0, lsl #17
   10338:	6053      	str	r3, [r2, #4]
   1033a:	4770      	bx	lr
   1033c:	1000      	asrs	r0, r0, #32
   1033e:	4002      	ands	r2, r0
   10340:	4a03      	ldr	r2, [pc, #12]	; (0x10350)
   10342:	6853      	ldr	r3, [r2, #4]
   10344:	f423 4340 	bic.w	r3, r3, #49152	; 0xc000
   10348:	ea43 3380 	orr.w	r3, r3, r0, lsl #14
   1034c:	6053      	str	r3, [r2, #4]
   1034e:	4770      	bx	lr
   10350:	1000      	asrs	r0, r0, #32
   10352:	4002      	ands	r2, r0
   10354:	4a03      	ldr	r2, [pc, #12]	; (0x10364)
   10356:	6853      	ldr	r3, [r2, #4]
   10358:	f423 5360 	bic.w	r3, r3, #14336	; 0x3800
   1035c:	ea43 23c0 	orr.w	r3, r3, r0, lsl #11
   10360:	6053      	str	r3, [r2, #4]
   10362:	4770      	bx	lr
   10364:	1000      	asrs	r0, r0, #32
   10366:	4002      	ands	r2, r0
   10368:	4a03      	ldr	r2, [pc, #12]	; (0x10378)
   1036a:	6853      	ldr	r3, [r2, #4]
   1036c:	f423 63e0 	bic.w	r3, r3, #1792	; 0x700
   10370:	ea43 2300 	orr.w	r3, r3, r0, lsl #8
   10374:	6053      	str	r3, [r2, #4]
   10376:	4770      	bx	lr
   10378:	1000      	asrs	r0, r0, #32
   1037a:	4002      	ands	r2, r0
   1037c:	4a03      	ldr	r2, [pc, #12]	; (0x1038c)
   1037e:	6853      	ldr	r3, [r2, #4]
   10380:	f023 03f0 	bic.w	r3, r3, #240	; 0xf0
   10384:	ea43 1300 	orr.w	r3, r3, r0, lsl #4
   10388:	6053      	str	r3, [r2, #4]
   1038a:	4770      	bx	lr
   1038c:	1000      	asrs	r0, r0, #32
   1038e:	4002      	ands	r2, r0
   10390:	4b04      	ldr	r3, [pc, #16]	; (0x103a4)
   10392:	685a      	ldr	r2, [r3, #4]
   10394:	b118      	cbz	r0, 0x1039e
   10396:	f442 0280 	orr.w	r2, r2, #4194304	; 0x400000
   1039a:	605a      	str	r2, [r3, #4]
   1039c:	4770      	bx	lr
   1039e:	f422 0280 	bic.w	r2, r2, #4194304	; 0x400000
   103a2:	e7fa      	b.n	0x1039a
   103a4:	1000      	asrs	r0, r0, #32
   103a6:	4002      	ands	r2, r0
   103a8:	4a03      	ldr	r2, [pc, #12]	; (0x103b8)
   103aa:	6ad3      	ldr	r3, [r2, #44]	; 0x2c
   103ac:	f023 030f 	bic.w	r3, r3, #15
   103b0:	4303      	orrs	r3, r0
   103b2:	62d3      	str	r3, [r2, #44]	; 0x2c
   103b4:	4770      	bx	lr
   103b6:	bf00      	nop
   103b8:	1000      	asrs	r0, r0, #32
   103ba:	4002      	ands	r2, r0
   103bc:	4a03      	ldr	r2, [pc, #12]	; (0x103cc)
   103be:	6ad3      	ldr	r3, [r2, #44]	; 0x2c
   103c0:	f023 03f0 	bic.w	r3, r3, #240	; 0xf0
   103c4:	ea43 1300 	orr.w	r3, r3, r0, lsl #4
   103c8:	62d3      	str	r3, [r2, #44]	; 0x2c
   103ca:	4770      	bx	lr
   103cc:	1000      	asrs	r0, r0, #32
   103ce:	4002      	ands	r2, r0
   103d0:	4b04      	ldr	r3, [pc, #16]	; (0x103e4)
   103d2:	6ada      	ldr	r2, [r3, #44]	; 0x2c
   103d4:	b118      	cbz	r0, 0x103de
   103d6:	f442 3280 	orr.w	r2, r2, #65536	; 0x10000
   103da:	62da      	str	r2, [r3, #44]	; 0x2c
   103dc:	4770      	bx	lr
   103de:	f422 3280 	bic.w	r2, r2, #65536	; 0x10000
   103e2:	e7fa      	b.n	0x103da
   103e4:	1000      	asrs	r0, r0, #32
   103e6:	4002      	ands	r2, r0
   103e8:	b510      	push	{r4, lr}
   103ea:	4604      	mov	r4, r0
   103ec:	7843      	ldrb	r3, [r0, #1]
   103ee:	2b01      	cmp	r3, #1
   103f0:	bf0c      	ite	eq
   103f2:	2003      	moveq	r0, #3
   103f4:	2004      	movne	r0, #4
   103f6:	f7ff ff37 	bl	0x10268
   103fa:	f7ff ff2d 	bl	0x10258
   103fe:	78a0      	ldrb	r0, [r4, #2]
   10400:	f7ff ffbc 	bl	0x1037c
   10404:	78e0      	ldrb	r0, [r4, #3]
   10406:	f7ff ffaf 	bl	0x10368
   1040a:	7920      	ldrb	r0, [r4, #4]
   1040c:	f7ff ffa2 	bl	0x10354
   10410:	7960      	ldrb	r0, [r4, #5]
   10412:	f7ff ff95 	bl	0x10340
   10416:	7b20      	ldrb	r0, [r4, #12]
   10418:	f7ff ffba 	bl	0x10390
   1041c:	79a0      	ldrb	r0, [r4, #6]
   1041e:	f000 f89b 	bl	0x10558
   10422:	7820      	ldrb	r0, [r4, #0]
   10424:	f7ff ff5a 	bl	0x102dc
   10428:	7860      	ldrb	r0, [r4, #1]
   1042a:	f7ff ff75 	bl	0x10318
   1042e:	79e0      	ldrb	r0, [r4, #7]
   10430:	2801      	cmp	r0, #1
   10432:	d92d      	bls.n	0x10490
   10434:	f7ff ffb8 	bl	0x103a8
   10438:	7a20      	ldrb	r0, [r4, #8]
   1043a:	b108      	cbz	r0, 0x10440
   1043c:	f7ff ffc8 	bl	0x103d0
   10440:	7a60      	ldrb	r0, [r4, #9]
   10442:	b108      	cbz	r0, 0x10448
   10444:	f7ff ffba 	bl	0x103bc
   10448:	7aa0      	ldrb	r0, [r4, #10]
   1044a:	b130      	cbz	r0, 0x1045a
   1044c:	f7ff ff50 	bl	0x102f0
   10450:	2001      	movs	r0, #1
   10452:	f7ff ff09 	bl	0x10268
   10456:	f7ff feff 	bl	0x10258
   1045a:	7ae0      	ldrb	r0, [r4, #11]
   1045c:	b130      	cbz	r0, 0x1046c
   1045e:	f7ff ff51 	bl	0x10304
   10462:	2002      	movs	r0, #2
   10464:	f7ff ff00 	bl	0x10268
   10468:	f7ff fef6 	bl	0x10258
   1046c:	2000      	movs	r0, #0
   1046e:	f7ff fefb 	bl	0x10268
   10472:	f7ff fef1 	bl	0x10258
   10476:	2002      	movs	r0, #2
   10478:	f7ff ff26 	bl	0x102c8
   1047c:	6922      	ldr	r2, [r4, #16]
   1047e:	4b06      	ldr	r3, [pc, #24]	; (0x10498)
   10480:	601a      	str	r2, [r3, #0]
   10482:	6962      	ldr	r2, [r4, #20]
   10484:	4b05      	ldr	r3, [pc, #20]	; (0x1049c)
   10486:	601a      	str	r2, [r3, #0]
   10488:	69a2      	ldr	r2, [r4, #24]
   1048a:	4b05      	ldr	r3, [pc, #20]	; (0x104a0)
   1048c:	601a      	str	r2, [r3, #0]
   1048e:	bd10      	pop	{r4, pc}
   10490:	f7ff ff4c 	bl	0x1032c
   10494:	e7d0      	b.n	0x10438
   10496:	bf00      	nop
   10498:	0000      	movs	r0, r0
   1049a:	2000      	movs	r0, #0
   1049c:	0004      	movs	r4, r0
   1049e:	2000      	movs	r0, #0
   104a0:	0008      	movs	r0, r1
   104a2:	2000      	movs	r0, #0
   104a4:	2201      	movs	r2, #1
   104a6:	0943      	lsrs	r3, r0, #5
   104a8:	f103 4380 	add.w	r3, r3, #1073741824	; 0x40000000
   104ac:	f503 3304 	add.w	r3, r3, #135168	; 0x21000
   104b0:	6819      	ldr	r1, [r3, #0]
   104b2:	f000 001f 	and.w	r0, r0, #31
   104b6:	4082      	lsls	r2, r0
   104b8:	430a      	orrs	r2, r1
   104ba:	601a      	str	r2, [r3, #0]
   104bc:	4770      	bx	lr
   104be:	e7fe      	b.n	0x104be
   104c0:	4770      	bx	lr
   104c2:	0000      	movs	r0, r0
   104c4:	b538      	push	{r3, r4, r5, lr}
   104c6:	4a1a      	ldr	r2, [pc, #104]	; (0x10530)
   104c8:	4b1a      	ldr	r3, [pc, #104]	; (0x10534)
   104ca:	491b      	ldr	r1, [pc, #108]	; (0x10538)
   104cc:	428b      	cmp	r3, r1
   104ce:	d31a      	bcc.n	0x10506
   104d0:	2100      	movs	r1, #0
   104d2:	4a1a      	ldr	r2, [pc, #104]	; (0x1053c)
   104d4:	4293      	cmp	r3, r2
   104d6:	d31b      	bcc.n	0x10510
   104d8:	f04f 22e0 	mov.w	r2, #3758153728	; 0xe000e000
   104dc:	f8d2 3d14 	ldr.w	r3, [r2, #3348]	; 0xd14
   104e0:	4c17      	ldr	r4, [pc, #92]	; (0x10540)
   104e2:	f443 7300 	orr.w	r3, r3, #512	; 0x200
   104e6:	4d17      	ldr	r5, [pc, #92]	; (0x10544)
   104e8:	f8c2 3d14 	str.w	r3, [r2, #3348]	; 0xd14
   104ec:	42ac      	cmp	r4, r5
   104ee:	d312      	bcc.n	0x10516
   104f0:	4c15      	ldr	r4, [pc, #84]	; (0x10548)
   104f2:	4d16      	ldr	r5, [pc, #88]	; (0x1054c)
   104f4:	42ac      	cmp	r4, r5
   104f6:	d312      	bcc.n	0x1051e
   104f8:	f7ff fe2a 	bl	0x10150
   104fc:	4c14      	ldr	r4, [pc, #80]	; (0x10550)
   104fe:	4d15      	ldr	r5, [pc, #84]	; (0x10554)
   10500:	42ac      	cmp	r4, r5
   10502:	d310      	bcc.n	0x10526
   10504:	bd38      	pop	{r3, r4, r5, pc}
   10506:	f852 0b04 	ldr.w	r0, [r2], #4
   1050a:	f843 0b04 	str.w	r0, [r3], #4
   1050e:	e7dd      	b.n	0x104cc
   10510:	f843 1b04 	str.w	r1, [r3], #4
   10514:	e7de      	b.n	0x104d4
   10516:	f854 3b04 	ldr.w	r3, [r4], #4
   1051a:	4798      	blx	r3
   1051c:	e7e6      	b.n	0x104ec
   1051e:	f854 3b04 	ldr.w	r3, [r4], #4
   10522:	4798      	blx	r3
   10524:	e7e6      	b.n	0x104f4
   10526:	f854 3b04 	ldr.w	r3, [r4], #4
   1052a:	4798      	blx	r3
   1052c:	e7e8      	b.n	0x10500
   1052e:	bf00      	nop
   10530:	05c0      	lsls	r0, r0, #23
   10532:	0800      	lsrs	r0, r0, #32
   10534:	0000      	movs	r0, r0
   10536:	2000      	movs	r0, #0
   10538:	000c      	movs	r4, r1
   1053a:	2000      	movs	r0, #0
   1053c:	000c      	movs	r4, r1
   1053e:	2000      	movs	r0, #0
   10540:	05c0      	lsls	r0, r0, #23
   10542:	0800      	lsrs	r0, r0, #32
   10544:	05c0      	lsls	r0, r0, #23
   10546:	0800      	lsrs	r0, r0, #32
   10548:	05c0      	lsls	r0, r0, #23
   1054a:	0800      	lsrs	r0, r0, #32
   1054c:	05c0      	lsls	r0, r0, #23
   1054e:	0800      	lsrs	r0, r0, #32
   10550:	05c0      	lsls	r0, r0, #23
   10552:	0800      	lsrs	r0, r0, #32
   10554:	05c0      	lsls	r0, r0, #23
   10556:	0800      	lsrs	r0, r0, #32
   10558:	4a03      	ldr	r2, [pc, #12]	; (0x10568)
   1055a:	6813      	ldr	r3, [r2, #0]
   1055c:	f023 0307 	bic.w	r3, r3, #7
   10560:	4303      	orrs	r3, r0
   10562:	6013      	str	r3, [r2, #0]
   10564:	4770      	bx	lr
   10566:	bf00      	nop
   10568:	2000      	movs	r0, #0
   1056a:	4002      	ands	r2, r0
   1056c:	0004      	movs	r4, r0
	...
   1057a:	0000      	movs	r0, r0
   1057c:	3600      	adds	r6, #0
   1057e:	016e      	lsls	r6, r5, #5
   10580:	3600      	adds	r6, #0
   10582:	016e      	lsls	r6, r5, #5
   10584:	3600      	adds	r6, #0
   10586:	016e      	lsls	r6, r5, #5
   10588:	000a      	movs	r2, r1
   1058a:	0400      	lsls	r0, r0, #16
   1058c:	0300      	lsls	r0, r0, #12
   1058e:	0001      	movs	r1, r0
   10590:	0000      	movs	r0, r0
   10592:	0000      	movs	r0, r0
   10594:	0001      	movs	r1, r0
   10596:	0000      	movs	r0, r0
   10598:	6c00      	ldr	r0, [r0, #64]	; 0x40
   1059a:	02dc      	lsls	r4, r3, #11
   1059c:	3600      	adds	r6, #0
   1059e:	016e      	lsls	r6, r5, #5
   105a0:	6c00      	ldr	r0, [r0, #64]	; 0x40
   105a2:	02dc      	lsls	r4, r3, #11
   105a4:	000e      	movs	r6, r1
   105a6:	0400      	lsls	r0, r0, #16
   105a8:	0300      	lsls	r0, r0, #12
   105aa:	0002      	movs	r2, r0
	...
   105b4:	9000      	str	r0, [sp, #0]
   105b6:	03d0      	lsls	r0, r2, #15
   105b8:	4800      	ldr	r0, [pc, #0]	; (0x105bc)
   105ba:	01e8      	lsls	r0, r5, #7
   105bc:	9000      	str	r0, [sp, #0]
   105be:	03d0      	lsls	r0, r2, #15
	...
